
mulhu.out:     file format elf64-littleriscv


Disassembly of section .text.init:

0000000000000000 <_start>:
   0:	03c0006f          	j	3c <reset_vector>

0000000000000004 <trap_vector>:
   4:	34202f73          	csrr	t5,mcause
   8:	00800f93          	li	t6,8
   c:	03ff0263          	beq	t5,t6,30 <write_tohost>
  10:	00900f93          	li	t6,9
  14:	01ff0e63          	beq	t5,t6,30 <write_tohost>
  18:	00b00f93          	li	t6,11
  1c:	01ff0a63          	beq	t5,t6,30 <write_tohost>
  20:	34202f73          	csrr	t5,mcause
  24:	000f5463          	bgez	t5,2c <handle_exception>
  28:	0040006f          	j	2c <handle_exception>

000000000000002c <handle_exception>:
  2c:	5391e193          	or	gp,gp,1337

0000000000000030 <write_tohost>:
  30:	10000f17          	auipc	t5,0x10000
  34:	fc3f2823          	sw	gp,-48(t5) # 10000000 <tohost>
  38:	0000006f          	j	38 <write_tohost+0x8>

000000000000003c <reset_vector>:
  3c:	b0005073          	csrw	mcycle,0
  40:	b0205073          	csrw	minstret,0
  44:	00000093          	li	ra,0
  48:	00000113          	li	sp,0
  4c:	00000193          	li	gp,0
  50:	00000213          	li	tp,0
  54:	00000293          	li	t0,0
  58:	00000313          	li	t1,0
  5c:	00000393          	li	t2,0
  60:	00000413          	li	s0,0
  64:	00000493          	li	s1,0
  68:	00000513          	li	a0,0
  6c:	00000593          	li	a1,0
  70:	00000613          	li	a2,0
  74:	00000693          	li	a3,0
  78:	00000713          	li	a4,0
  7c:	00000793          	li	a5,0
  80:	00000813          	li	a6,0
  84:	00000893          	li	a7,0
  88:	00000913          	li	s2,0
  8c:	00000993          	li	s3,0
  90:	00000a13          	li	s4,0
  94:	00000a93          	li	s5,0
  98:	00000b13          	li	s6,0
  9c:	00000b93          	li	s7,0
  a0:	00000c13          	li	s8,0
  a4:	00000c93          	li	s9,0
  a8:	00000d13          	li	s10,0
  ac:	00000d93          	li	s11,0
  b0:	00000e13          	li	t3,0
  b4:	00000e93          	li	t4,0
  b8:	00000f13          	li	t5,0
  bc:	00000f93          	li	t6,0
  c0:	00000193          	li	gp,0
  c4:	00000297          	auipc	t0,0x0
  c8:	f4028293          	add	t0,t0,-192 # 4 <trap_vector>
  cc:	30529073          	csrw	mtvec,t0
  d0:	30005073          	csrw	mstatus,0
  d4:	00000297          	auipc	t0,0x0
  d8:	01428293          	add	t0,t0,20 # e8 <test_2>
  dc:	34129073          	csrw	mepc,t0
  e0:	f1402573          	csrr	a0,mhartid
  e4:	30200073          	mret

00000000000000e8 <test_2>:
  e8:	00200193          	li	gp,2
  ec:	00000093          	li	ra,0
  f0:	00000113          	li	sp,0
  f4:	0220b733          	mulhu	a4,ra,sp
  f8:	00000393          	li	t2,0
  fc:	4e771063          	bne	a4,t2,5dc <fail>

0000000000000100 <test_3>:
 100:	00300193          	li	gp,3
 104:	00100093          	li	ra,1
 108:	00100113          	li	sp,1
 10c:	0220b733          	mulhu	a4,ra,sp
 110:	00000393          	li	t2,0
 114:	4c771463          	bne	a4,t2,5dc <fail>

0000000000000118 <test_4>:
 118:	00400193          	li	gp,4
 11c:	00300093          	li	ra,3
 120:	00700113          	li	sp,7
 124:	0220b733          	mulhu	a4,ra,sp
 128:	00000393          	li	t2,0
 12c:	4a771863          	bne	a4,t2,5dc <fail>

0000000000000130 <test_5>:
 130:	00500193          	li	gp,5
 134:	00000093          	li	ra,0
 138:	ffff8137          	lui	sp,0xffff8
 13c:	0220b733          	mulhu	a4,ra,sp
 140:	00000393          	li	t2,0
 144:	48771c63          	bne	a4,t2,5dc <fail>

0000000000000148 <test_6>:
 148:	00600193          	li	gp,6
 14c:	800000b7          	lui	ra,0x80000
 150:	00000113          	li	sp,0
 154:	0220b733          	mulhu	a4,ra,sp
 158:	00000393          	li	t2,0
 15c:	48771063          	bne	a4,t2,5dc <fail>

0000000000000160 <test_7>:
 160:	00700193          	li	gp,7
 164:	800000b7          	lui	ra,0x80000
 168:	ffff8137          	lui	sp,0xffff8
 16c:	0220b733          	mulhu	a4,ra,sp
 170:	ffff03b7          	lui	t2,0xffff0
 174:	fff3839b          	addw	t2,t2,-1 # fffffffffffeffff <_end+0xffffffffeffeffb7>
 178:	00f39393          	sll	t2,t2,0xf
 17c:	46771063          	bne	a4,t2,5dc <fail>

0000000000000180 <test_30>:
 180:	01e00193          	li	gp,30
 184:	faaab0b7          	lui	ra,0xfaaab
 188:	aab0809b          	addw	ra,ra,-1365 # fffffffffaaaaaab <_end+0xffffffffeaaaaa63>
 18c:	00c09093          	sll	ra,ra,0xc
 190:	aab08093          	add	ra,ra,-1365
 194:	00c09093          	sll	ra,ra,0xc
 198:	aab08093          	add	ra,ra,-1365
 19c:	00c09093          	sll	ra,ra,0xc
 1a0:	aab08093          	add	ra,ra,-1365
 1a4:	00030137          	lui	sp,0x30
 1a8:	e7d1011b          	addw	sp,sp,-387 # 2fe7d <begin_signature+0x2be7d>
 1ac:	0220b733          	mulhu	a4,ra,sp
 1b0:	000203b7          	lui	t2,0x20
 1b4:	efe3839b          	addw	t2,t2,-258 # 1fefe <begin_signature+0x1befe>
 1b8:	42771263          	bne	a4,t2,5dc <fail>

00000000000001bc <test_31>:
 1bc:	01f00193          	li	gp,31
 1c0:	000300b7          	lui	ra,0x30
 1c4:	e7d0809b          	addw	ra,ra,-387 # 2fe7d <begin_signature+0x2be7d>
 1c8:	faaab137          	lui	sp,0xfaaab
 1cc:	aab1011b          	addw	sp,sp,-1365 # fffffffffaaaaaab <_end+0xffffffffeaaaaa63>
 1d0:	00c11113          	sll	sp,sp,0xc
 1d4:	aab10113          	add	sp,sp,-1365
 1d8:	00c11113          	sll	sp,sp,0xc
 1dc:	aab10113          	add	sp,sp,-1365
 1e0:	00c11113          	sll	sp,sp,0xc
 1e4:	aab10113          	add	sp,sp,-1365
 1e8:	0220b733          	mulhu	a4,ra,sp
 1ec:	000203b7          	lui	t2,0x20
 1f0:	efe3839b          	addw	t2,t2,-258 # 1fefe <begin_signature+0x1befe>
 1f4:	3e771463          	bne	a4,t2,5dc <fail>

00000000000001f8 <test_8>:
 1f8:	00800193          	li	gp,8
 1fc:	00d0009b          	addw	ra,zero,13
 200:	02009093          	sll	ra,ra,0x20
 204:	00b0011b          	addw	sp,zero,11
 208:	02011113          	sll	sp,sp,0x20
 20c:	0220b0b3          	mulhu	ra,ra,sp
 210:	08f00393          	li	t2,143
 214:	3c709463          	bne	ra,t2,5dc <fail>

0000000000000218 <test_9>:
 218:	00900193          	li	gp,9
 21c:	0070009b          	addw	ra,zero,7
 220:	02109093          	sll	ra,ra,0x21
 224:	00b0011b          	addw	sp,zero,11
 228:	02011113          	sll	sp,sp,0x20
 22c:	0220b133          	mulhu	sp,ra,sp
 230:	09a00393          	li	t2,154
 234:	3a711463          	bne	sp,t2,5dc <fail>

0000000000000238 <test_10>:
 238:	00a00193          	li	gp,10
 23c:	00d0009b          	addw	ra,zero,13
 240:	02009093          	sll	ra,ra,0x20
 244:	0210b0b3          	mulhu	ra,ra,ra
 248:	0a900393          	li	t2,169
 24c:	38709863          	bne	ra,t2,5dc <fail>

0000000000000250 <test_11>:
 250:	00b00193          	li	gp,11
 254:	00000213          	li	tp,0
 258:	00d0009b          	addw	ra,zero,13
 25c:	02009093          	sll	ra,ra,0x20
 260:	00b0011b          	addw	sp,zero,11
 264:	02011113          	sll	sp,sp,0x20
 268:	0220b733          	mulhu	a4,ra,sp
 26c:	00070313          	mv	t1,a4
 270:	00120213          	add	tp,tp,1 # 1 <_start+0x1>
 274:	00200293          	li	t0,2
 278:	fe5210e3          	bne	tp,t0,258 <test_11+0x8>
 27c:	08f00393          	li	t2,143
 280:	34731e63          	bne	t1,t2,5dc <fail>

0000000000000284 <test_12>:
 284:	00c00193          	li	gp,12
 288:	00000213          	li	tp,0
 28c:	0070009b          	addw	ra,zero,7
 290:	02109093          	sll	ra,ra,0x21
 294:	00b0011b          	addw	sp,zero,11
 298:	02011113          	sll	sp,sp,0x20
 29c:	0220b733          	mulhu	a4,ra,sp
 2a0:	00000013          	nop
 2a4:	00070313          	mv	t1,a4
 2a8:	00120213          	add	tp,tp,1 # 1 <_start+0x1>
 2ac:	00200293          	li	t0,2
 2b0:	fc521ee3          	bne	tp,t0,28c <test_12+0x8>
 2b4:	09a00393          	li	t2,154
 2b8:	32731263          	bne	t1,t2,5dc <fail>

00000000000002bc <test_13>:
 2bc:	00d00193          	li	gp,13
 2c0:	00000213          	li	tp,0
 2c4:	00f0009b          	addw	ra,zero,15
 2c8:	02009093          	sll	ra,ra,0x20
 2cc:	00b0011b          	addw	sp,zero,11
 2d0:	02011113          	sll	sp,sp,0x20
 2d4:	0220b733          	mulhu	a4,ra,sp
 2d8:	00000013          	nop
 2dc:	00000013          	nop
 2e0:	00070313          	mv	t1,a4
 2e4:	00120213          	add	tp,tp,1 # 1 <_start+0x1>
 2e8:	00200293          	li	t0,2
 2ec:	fc521ce3          	bne	tp,t0,2c4 <test_13+0x8>
 2f0:	0a500393          	li	t2,165
 2f4:	2e731463          	bne	t1,t2,5dc <fail>

00000000000002f8 <test_14>:
 2f8:	00e00193          	li	gp,14
 2fc:	00000213          	li	tp,0
 300:	00d0009b          	addw	ra,zero,13
 304:	02009093          	sll	ra,ra,0x20
 308:	00b0011b          	addw	sp,zero,11
 30c:	02011113          	sll	sp,sp,0x20
 310:	0220b733          	mulhu	a4,ra,sp
 314:	00120213          	add	tp,tp,1 # 1 <_start+0x1>
 318:	00200293          	li	t0,2
 31c:	fe5212e3          	bne	tp,t0,300 <test_14+0x8>
 320:	08f00393          	li	t2,143
 324:	2a771c63          	bne	a4,t2,5dc <fail>

0000000000000328 <test_15>:
 328:	00f00193          	li	gp,15
 32c:	00000213          	li	tp,0
 330:	0070009b          	addw	ra,zero,7
 334:	02109093          	sll	ra,ra,0x21
 338:	00b0011b          	addw	sp,zero,11
 33c:	02011113          	sll	sp,sp,0x20
 340:	00000013          	nop
 344:	0220b733          	mulhu	a4,ra,sp
 348:	00120213          	add	tp,tp,1 # 1 <_start+0x1>
 34c:	00200293          	li	t0,2
 350:	fe5210e3          	bne	tp,t0,330 <test_15+0x8>
 354:	09a00393          	li	t2,154
 358:	28771263          	bne	a4,t2,5dc <fail>

000000000000035c <test_16>:
 35c:	01000193          	li	gp,16
 360:	00000213          	li	tp,0
 364:	00f0009b          	addw	ra,zero,15
 368:	02009093          	sll	ra,ra,0x20
 36c:	00b0011b          	addw	sp,zero,11
 370:	02011113          	sll	sp,sp,0x20
 374:	00000013          	nop
 378:	00000013          	nop
 37c:	0220b733          	mulhu	a4,ra,sp
 380:	00120213          	add	tp,tp,1 # 1 <_start+0x1>
 384:	00200293          	li	t0,2
 388:	fc521ee3          	bne	tp,t0,364 <test_16+0x8>
 38c:	0a500393          	li	t2,165
 390:	24771663          	bne	a4,t2,5dc <fail>

0000000000000394 <test_17>:
 394:	01100193          	li	gp,17
 398:	00000213          	li	tp,0
 39c:	00d0009b          	addw	ra,zero,13
 3a0:	02009093          	sll	ra,ra,0x20
 3a4:	00000013          	nop
 3a8:	00b0011b          	addw	sp,zero,11
 3ac:	02011113          	sll	sp,sp,0x20
 3b0:	0220b733          	mulhu	a4,ra,sp
 3b4:	00120213          	add	tp,tp,1 # 1 <_start+0x1>
 3b8:	00200293          	li	t0,2
 3bc:	fe5210e3          	bne	tp,t0,39c <test_17+0x8>
 3c0:	08f00393          	li	t2,143
 3c4:	20771c63          	bne	a4,t2,5dc <fail>

00000000000003c8 <test_18>:
 3c8:	01200193          	li	gp,18
 3cc:	00000213          	li	tp,0
 3d0:	0070009b          	addw	ra,zero,7
 3d4:	02109093          	sll	ra,ra,0x21
 3d8:	00000013          	nop
 3dc:	00b0011b          	addw	sp,zero,11
 3e0:	02011113          	sll	sp,sp,0x20
 3e4:	00000013          	nop
 3e8:	0220b733          	mulhu	a4,ra,sp
 3ec:	00120213          	add	tp,tp,1 # 1 <_start+0x1>
 3f0:	00200293          	li	t0,2
 3f4:	fc521ee3          	bne	tp,t0,3d0 <test_18+0x8>
 3f8:	09a00393          	li	t2,154
 3fc:	1e771063          	bne	a4,t2,5dc <fail>

0000000000000400 <test_19>:
 400:	01300193          	li	gp,19
 404:	00000213          	li	tp,0
 408:	00f0009b          	addw	ra,zero,15
 40c:	02009093          	sll	ra,ra,0x20
 410:	00000013          	nop
 414:	00000013          	nop
 418:	00b0011b          	addw	sp,zero,11
 41c:	02011113          	sll	sp,sp,0x20
 420:	0220b733          	mulhu	a4,ra,sp
 424:	00120213          	add	tp,tp,1 # 1 <_start+0x1>
 428:	00200293          	li	t0,2
 42c:	fc521ee3          	bne	tp,t0,408 <test_19+0x8>
 430:	0a500393          	li	t2,165
 434:	1a771463          	bne	a4,t2,5dc <fail>

0000000000000438 <test_20>:
 438:	01400193          	li	gp,20
 43c:	00000213          	li	tp,0
 440:	00b0011b          	addw	sp,zero,11
 444:	02011113          	sll	sp,sp,0x20
 448:	00d0009b          	addw	ra,zero,13
 44c:	02009093          	sll	ra,ra,0x20
 450:	0220b733          	mulhu	a4,ra,sp
 454:	00120213          	add	tp,tp,1 # 1 <_start+0x1>
 458:	00200293          	li	t0,2
 45c:	fe5212e3          	bne	tp,t0,440 <test_20+0x8>
 460:	08f00393          	li	t2,143
 464:	16771c63          	bne	a4,t2,5dc <fail>

0000000000000468 <test_21>:
 468:	01500193          	li	gp,21
 46c:	00000213          	li	tp,0
 470:	00b0011b          	addw	sp,zero,11
 474:	02011113          	sll	sp,sp,0x20
 478:	0070009b          	addw	ra,zero,7
 47c:	02109093          	sll	ra,ra,0x21
 480:	00000013          	nop
 484:	0220b733          	mulhu	a4,ra,sp
 488:	00120213          	add	tp,tp,1 # 1 <_start+0x1>
 48c:	00200293          	li	t0,2
 490:	fe5210e3          	bne	tp,t0,470 <test_21+0x8>
 494:	09a00393          	li	t2,154
 498:	14771263          	bne	a4,t2,5dc <fail>

000000000000049c <test_22>:
 49c:	01600193          	li	gp,22
 4a0:	00000213          	li	tp,0
 4a4:	00b0011b          	addw	sp,zero,11
 4a8:	02011113          	sll	sp,sp,0x20
 4ac:	00f0009b          	addw	ra,zero,15
 4b0:	02009093          	sll	ra,ra,0x20
 4b4:	00000013          	nop
 4b8:	00000013          	nop
 4bc:	0220b733          	mulhu	a4,ra,sp
 4c0:	00120213          	add	tp,tp,1 # 1 <_start+0x1>
 4c4:	00200293          	li	t0,2
 4c8:	fc521ee3          	bne	tp,t0,4a4 <test_22+0x8>
 4cc:	0a500393          	li	t2,165
 4d0:	10771663          	bne	a4,t2,5dc <fail>

00000000000004d4 <test_23>:
 4d4:	01700193          	li	gp,23
 4d8:	00000213          	li	tp,0
 4dc:	00b0011b          	addw	sp,zero,11
 4e0:	02011113          	sll	sp,sp,0x20
 4e4:	00000013          	nop
 4e8:	00d0009b          	addw	ra,zero,13
 4ec:	02009093          	sll	ra,ra,0x20
 4f0:	0220b733          	mulhu	a4,ra,sp
 4f4:	00120213          	add	tp,tp,1 # 1 <_start+0x1>
 4f8:	00200293          	li	t0,2
 4fc:	fe5210e3          	bne	tp,t0,4dc <test_23+0x8>
 500:	08f00393          	li	t2,143
 504:	0c771c63          	bne	a4,t2,5dc <fail>

0000000000000508 <test_24>:
 508:	01800193          	li	gp,24
 50c:	00000213          	li	tp,0
 510:	00b0011b          	addw	sp,zero,11
 514:	02011113          	sll	sp,sp,0x20
 518:	00000013          	nop
 51c:	0070009b          	addw	ra,zero,7
 520:	02109093          	sll	ra,ra,0x21
 524:	00000013          	nop
 528:	0220b733          	mulhu	a4,ra,sp
 52c:	00120213          	add	tp,tp,1 # 1 <_start+0x1>
 530:	00200293          	li	t0,2
 534:	fc521ee3          	bne	tp,t0,510 <test_24+0x8>
 538:	09a00393          	li	t2,154
 53c:	0a771063          	bne	a4,t2,5dc <fail>

0000000000000540 <test_25>:
 540:	01900193          	li	gp,25
 544:	00000213          	li	tp,0
 548:	00b0011b          	addw	sp,zero,11
 54c:	02011113          	sll	sp,sp,0x20
 550:	00000013          	nop
 554:	00000013          	nop
 558:	00f0009b          	addw	ra,zero,15
 55c:	02009093          	sll	ra,ra,0x20
 560:	0220b733          	mulhu	a4,ra,sp
 564:	00120213          	add	tp,tp,1 # 1 <_start+0x1>
 568:	00200293          	li	t0,2
 56c:	fc521ee3          	bne	tp,t0,548 <test_25+0x8>
 570:	0a500393          	li	t2,165
 574:	06771463          	bne	a4,t2,5dc <fail>

0000000000000578 <test_26>:
 578:	01a00193          	li	gp,26
 57c:	01f0009b          	addw	ra,zero,31
 580:	02009093          	sll	ra,ra,0x20
 584:	02103133          	mulhu	sp,zero,ra
 588:	00000393          	li	t2,0
 58c:	04711863          	bne	sp,t2,5dc <fail>

0000000000000590 <test_27>:
 590:	01b00193          	li	gp,27
 594:	0010009b          	addw	ra,zero,1
 598:	02509093          	sll	ra,ra,0x25
 59c:	0200b133          	mulhu	sp,ra,zero
 5a0:	00000393          	li	t2,0
 5a4:	02711c63          	bne	sp,t2,5dc <fail>

00000000000005a8 <test_28>:
 5a8:	01c00193          	li	gp,28
 5ac:	020030b3          	mulhu	ra,zero,zero
 5b0:	00000393          	li	t2,0
 5b4:	02709463          	bne	ra,t2,5dc <fail>

00000000000005b8 <test_29>:
 5b8:	01d00193          	li	gp,29
 5bc:	0210009b          	addw	ra,zero,33
 5c0:	02009093          	sll	ra,ra,0x20
 5c4:	0110011b          	addw	sp,zero,17
 5c8:	02111113          	sll	sp,sp,0x21
 5cc:	0220b033          	mulhu	zero,ra,sp
 5d0:	00000393          	li	t2,0
 5d4:	00701463          	bne	zero,t2,5dc <fail>
 5d8:	02301063          	bne	zero,gp,5f8 <pass>

00000000000005dc <fail>:
 5dc:	0ff0000f          	fence
 5e0:	00018063          	beqz	gp,5e0 <fail+0x4>
 5e4:	00119193          	sll	gp,gp,0x1
 5e8:	0011e193          	or	gp,gp,1
 5ec:	05d00893          	li	a7,93
 5f0:	00018513          	mv	a0,gp
 5f4:	00000073          	ecall

00000000000005f8 <pass>:
 5f8:	0ff0000f          	fence
 5fc:	00100193          	li	gp,1
 600:	05d00893          	li	a7,93
 604:	00000513          	li	a0,0
 608:	00000073          	ecall
 60c:	c0001073          	unimp
 610:	0000                	.2byte	0x0
 612:	0000                	.2byte	0x0
 614:	0000                	.2byte	0x0
 616:	0000                	.2byte	0x0
 618:	0000                	.2byte	0x0
 61a:	0000                	.2byte	0x0
 61c:	0000                	.2byte	0x0
 61e:	0000                	.2byte	0x0
 620:	0000                	.2byte	0x0
 622:	0000                	.2byte	0x0
 624:	0000                	.2byte	0x0
 626:	0000                	.2byte	0x0
 628:	0000                	.2byte	0x0
 62a:	0000                	.2byte	0x0
 62c:	0000                	.2byte	0x0
 62e:	0000                	.2byte	0x0
 630:	0000                	.2byte	0x0
 632:	0000                	.2byte	0x0
 634:	0000                	.2byte	0x0
 636:	0000                	.2byte	0x0
 638:	0000                	.2byte	0x0
 63a:	0000                	.2byte	0x0
 63c:	0000                	.2byte	0x0
 63e:	0000                	.2byte	0x0
 640:	0000                	.2byte	0x0
 642:	0000                	.2byte	0x0
