
addiw.out:     file format elf64-littleriscv


Disassembly of section .text.init:

0000000000000000 <_start>:
   0:	03c0006f          	j	3c <reset_vector>

0000000000000004 <trap_vector>:
   4:	34202f73          	csrr	t5,mcause
   8:	00800f93          	li	t6,8
   c:	03ff0263          	beq	t5,t6,30 <write_tohost>
  10:	00900f93          	li	t6,9
  14:	01ff0e63          	beq	t5,t6,30 <write_tohost>
  18:	00b00f93          	li	t6,11
  1c:	01ff0a63          	beq	t5,t6,30 <write_tohost>
  20:	34202f73          	csrr	t5,mcause
  24:	000f5463          	bgez	t5,2c <handle_exception>
  28:	0040006f          	j	2c <handle_exception>

000000000000002c <handle_exception>:
  2c:	5391e193          	or	gp,gp,1337

0000000000000030 <write_tohost>:
  30:	10000f17          	auipc	t5,0x10000
  34:	fc3f2823          	sw	gp,-48(t5) # 10000000 <tohost>
  38:	0000006f          	j	38 <write_tohost+0x8>

000000000000003c <reset_vector>:
  3c:	b0005073          	csrw	mcycle,0
  40:	b0205073          	csrw	minstret,0
  44:	00000093          	li	ra,0
  48:	00000113          	li	sp,0
  4c:	00000193          	li	gp,0
  50:	00000213          	li	tp,0
  54:	00000293          	li	t0,0
  58:	00000313          	li	t1,0
  5c:	00000393          	li	t2,0
  60:	00000413          	li	s0,0
  64:	00000493          	li	s1,0
  68:	00000513          	li	a0,0
  6c:	00000593          	li	a1,0
  70:	00000613          	li	a2,0
  74:	00000693          	li	a3,0
  78:	00000713          	li	a4,0
  7c:	00000793          	li	a5,0
  80:	00000813          	li	a6,0
  84:	00000893          	li	a7,0
  88:	00000913          	li	s2,0
  8c:	00000993          	li	s3,0
  90:	00000a13          	li	s4,0
  94:	00000a93          	li	s5,0
  98:	00000b13          	li	s6,0
  9c:	00000b93          	li	s7,0
  a0:	00000c13          	li	s8,0
  a4:	00000c93          	li	s9,0
  a8:	00000d13          	li	s10,0
  ac:	00000d93          	li	s11,0
  b0:	00000e13          	li	t3,0
  b4:	00000e93          	li	t4,0
  b8:	00000f13          	li	t5,0
  bc:	00000f93          	li	t6,0
  c0:	00000193          	li	gp,0
  c4:	00000297          	auipc	t0,0x0
  c8:	f4028293          	add	t0,t0,-192 # 4 <trap_vector>
  cc:	30529073          	csrw	mtvec,t0
  d0:	30005073          	csrw	mstatus,0
  d4:	00000297          	auipc	t0,0x0
  d8:	01428293          	add	t0,t0,20 # e8 <test_2>
  dc:	34129073          	csrw	mepc,t0
  e0:	f1402573          	csrr	a0,mhartid
  e4:	30200073          	mret

00000000000000e8 <test_2>:
  e8:	00200193          	li	gp,2
  ec:	00000093          	li	ra,0
  f0:	0000871b          	sext.w	a4,ra
  f4:	00000393          	li	t2,0
  f8:	26771c63          	bne	a4,t2,370 <fail>

00000000000000fc <test_3>:
  fc:	00300193          	li	gp,3
 100:	00100093          	li	ra,1
 104:	0010871b          	addw	a4,ra,1
 108:	00200393          	li	t2,2
 10c:	26771263          	bne	a4,t2,370 <fail>

0000000000000110 <test_4>:
 110:	00400193          	li	gp,4
 114:	00300093          	li	ra,3
 118:	0070871b          	addw	a4,ra,7
 11c:	00a00393          	li	t2,10
 120:	24771863          	bne	a4,t2,370 <fail>

0000000000000124 <test_5>:
 124:	00500193          	li	gp,5
 128:	00000093          	li	ra,0
 12c:	8000871b          	addw	a4,ra,-2048
 130:	80000393          	li	t2,-2048
 134:	22771e63          	bne	a4,t2,370 <fail>

0000000000000138 <test_6>:
 138:	00600193          	li	gp,6
 13c:	800000b7          	lui	ra,0x80000
 140:	0000871b          	sext.w	a4,ra
 144:	800003b7          	lui	t2,0x80000
 148:	22771463          	bne	a4,t2,370 <fail>

000000000000014c <test_7>:
 14c:	00700193          	li	gp,7
 150:	800000b7          	lui	ra,0x80000
 154:	8000871b          	addw	a4,ra,-2048 # 7ffff800 <_end+0x6ffff7b8>
 158:	800003b7          	lui	t2,0x80000
 15c:	8003839b          	addw	t2,t2,-2048 # 7ffff800 <_end+0x6ffff7b8>
 160:	20771863          	bne	a4,t2,370 <fail>

0000000000000164 <test_8>:
 164:	00800193          	li	gp,8
 168:	00000093          	li	ra,0
 16c:	7ff0871b          	addw	a4,ra,2047
 170:	7ff00393          	li	t2,2047
 174:	1e771e63          	bne	a4,t2,370 <fail>

0000000000000178 <test_9>:
 178:	00900193          	li	gp,9
 17c:	800000b7          	lui	ra,0x80000
 180:	fff0809b          	addw	ra,ra,-1 # 7fffffff <_end+0x6fffffb7>
 184:	0000871b          	sext.w	a4,ra
 188:	800003b7          	lui	t2,0x80000
 18c:	fff3839b          	addw	t2,t2,-1 # 7fffffff <_end+0x6fffffb7>
 190:	1e771063          	bne	a4,t2,370 <fail>

0000000000000194 <test_10>:
 194:	00a00193          	li	gp,10
 198:	800000b7          	lui	ra,0x80000
 19c:	fff0809b          	addw	ra,ra,-1 # 7fffffff <_end+0x6fffffb7>
 1a0:	7ff0871b          	addw	a4,ra,2047
 1a4:	800003b7          	lui	t2,0x80000
 1a8:	7fe3839b          	addw	t2,t2,2046 # ffffffff800007fe <_end+0xffffffff700007b6>
 1ac:	1c771263          	bne	a4,t2,370 <fail>

00000000000001b0 <test_11>:
 1b0:	00b00193          	li	gp,11
 1b4:	800000b7          	lui	ra,0x80000
 1b8:	7ff0871b          	addw	a4,ra,2047 # ffffffff800007ff <_end+0xffffffff700007b7>
 1bc:	800003b7          	lui	t2,0x80000
 1c0:	7ff3839b          	addw	t2,t2,2047 # ffffffff800007ff <_end+0xffffffff700007b7>
 1c4:	1a771663          	bne	a4,t2,370 <fail>

00000000000001c8 <test_12>:
 1c8:	00c00193          	li	gp,12
 1cc:	800000b7          	lui	ra,0x80000
 1d0:	fff0809b          	addw	ra,ra,-1 # 7fffffff <_end+0x6fffffb7>
 1d4:	8000871b          	addw	a4,ra,-2048
 1d8:	7ffff3b7          	lui	t2,0x7ffff
 1dc:	7ff3839b          	addw	t2,t2,2047 # 7ffff7ff <_end+0x6ffff7b7>
 1e0:	18771863          	bne	a4,t2,370 <fail>

00000000000001e4 <test_13>:
 1e4:	00d00193          	li	gp,13
 1e8:	00000093          	li	ra,0
 1ec:	fff0871b          	addw	a4,ra,-1
 1f0:	fff00393          	li	t2,-1
 1f4:	16771e63          	bne	a4,t2,370 <fail>

00000000000001f8 <test_14>:
 1f8:	00e00193          	li	gp,14
 1fc:	fff00093          	li	ra,-1
 200:	0010871b          	addw	a4,ra,1
 204:	00000393          	li	t2,0
 208:	16771463          	bne	a4,t2,370 <fail>

000000000000020c <test_15>:
 20c:	00f00193          	li	gp,15
 210:	fff00093          	li	ra,-1
 214:	fff0871b          	addw	a4,ra,-1
 218:	ffe00393          	li	t2,-2
 21c:	14771a63          	bne	a4,t2,370 <fail>

0000000000000220 <test_16>:
 220:	01000193          	li	gp,16
 224:	800000b7          	lui	ra,0x80000
 228:	fff0809b          	addw	ra,ra,-1 # 7fffffff <_end+0x6fffffb7>
 22c:	0010871b          	addw	a4,ra,1
 230:	800003b7          	lui	t2,0x80000
 234:	12771e63          	bne	a4,t2,370 <fail>

0000000000000238 <test_17>:
 238:	01100193          	li	gp,17
 23c:	00d00093          	li	ra,13
 240:	00b0809b          	addw	ra,ra,11
 244:	01800393          	li	t2,24
 248:	12709463          	bne	ra,t2,370 <fail>

000000000000024c <test_18>:
 24c:	01200193          	li	gp,18
 250:	00000213          	li	tp,0
 254:	00d00093          	li	ra,13
 258:	00b0871b          	addw	a4,ra,11
 25c:	00070313          	mv	t1,a4
 260:	00120213          	add	tp,tp,1 # 1 <_start+0x1>
 264:	00200293          	li	t0,2
 268:	fe5216e3          	bne	tp,t0,254 <test_18+0x8>
 26c:	01800393          	li	t2,24
 270:	10731063          	bne	t1,t2,370 <fail>

0000000000000274 <test_19>:
 274:	01300193          	li	gp,19
 278:	00000213          	li	tp,0
 27c:	00d00093          	li	ra,13
 280:	00a0871b          	addw	a4,ra,10
 284:	00000013          	nop
 288:	00070313          	mv	t1,a4
 28c:	00120213          	add	tp,tp,1 # 1 <_start+0x1>
 290:	00200293          	li	t0,2
 294:	fe5214e3          	bne	tp,t0,27c <test_19+0x8>
 298:	01700393          	li	t2,23
 29c:	0c731a63          	bne	t1,t2,370 <fail>

00000000000002a0 <test_20>:
 2a0:	01400193          	li	gp,20
 2a4:	00000213          	li	tp,0
 2a8:	00d00093          	li	ra,13
 2ac:	0090871b          	addw	a4,ra,9
 2b0:	00000013          	nop
 2b4:	00000013          	nop
 2b8:	00070313          	mv	t1,a4
 2bc:	00120213          	add	tp,tp,1 # 1 <_start+0x1>
 2c0:	00200293          	li	t0,2
 2c4:	fe5212e3          	bne	tp,t0,2a8 <test_20+0x8>
 2c8:	01600393          	li	t2,22
 2cc:	0a731263          	bne	t1,t2,370 <fail>

00000000000002d0 <test_21>:
 2d0:	01500193          	li	gp,21
 2d4:	00000213          	li	tp,0
 2d8:	00d00093          	li	ra,13
 2dc:	00b0871b          	addw	a4,ra,11
 2e0:	00120213          	add	tp,tp,1 # 1 <_start+0x1>
 2e4:	00200293          	li	t0,2
 2e8:	fe5218e3          	bne	tp,t0,2d8 <test_21+0x8>
 2ec:	01800393          	li	t2,24
 2f0:	08771063          	bne	a4,t2,370 <fail>

00000000000002f4 <test_22>:
 2f4:	01600193          	li	gp,22
 2f8:	00000213          	li	tp,0
 2fc:	00d00093          	li	ra,13
 300:	00000013          	nop
 304:	00a0871b          	addw	a4,ra,10
 308:	00120213          	add	tp,tp,1 # 1 <_start+0x1>
 30c:	00200293          	li	t0,2
 310:	fe5216e3          	bne	tp,t0,2fc <test_22+0x8>
 314:	01700393          	li	t2,23
 318:	04771c63          	bne	a4,t2,370 <fail>

000000000000031c <test_23>:
 31c:	01700193          	li	gp,23
 320:	00000213          	li	tp,0
 324:	00d00093          	li	ra,13
 328:	00000013          	nop
 32c:	00000013          	nop
 330:	0090871b          	addw	a4,ra,9
 334:	00120213          	add	tp,tp,1 # 1 <_start+0x1>
 338:	00200293          	li	t0,2
 33c:	fe5214e3          	bne	tp,t0,324 <test_23+0x8>
 340:	01600393          	li	t2,22
 344:	02771663          	bne	a4,t2,370 <fail>

0000000000000348 <test_24>:
 348:	01800193          	li	gp,24
 34c:	0200009b          	addw	ra,zero,32
 350:	02000393          	li	t2,32
 354:	00709e63          	bne	ra,t2,370 <fail>

0000000000000358 <test_25>:
 358:	01900193          	li	gp,25
 35c:	02100093          	li	ra,33
 360:	0320801b          	addw	zero,ra,50
 364:	00000393          	li	t2,0
 368:	00701463          	bne	zero,t2,370 <fail>
 36c:	02301063          	bne	zero,gp,38c <pass>

0000000000000370 <fail>:
 370:	0ff0000f          	fence
 374:	00018063          	beqz	gp,374 <fail+0x4>
 378:	00119193          	sll	gp,gp,0x1
 37c:	0011e193          	or	gp,gp,1
 380:	05d00893          	li	a7,93
 384:	00018513          	mv	a0,gp
 388:	00000073          	ecall

000000000000038c <pass>:
 38c:	0ff0000f          	fence
 390:	00100193          	li	gp,1
 394:	05d00893          	li	a7,93
 398:	00000513          	li	a0,0
 39c:	00000073          	ecall
 3a0:	c0001073          	unimp
 3a4:	0000                	.2byte	0x0
 3a6:	0000                	.2byte	0x0
 3a8:	0000                	.2byte	0x0
 3aa:	0000                	.2byte	0x0
 3ac:	0000                	.2byte	0x0
 3ae:	0000                	.2byte	0x0
 3b0:	0000                	.2byte	0x0
 3b2:	0000                	.2byte	0x0
 3b4:	0000                	.2byte	0x0
 3b6:	0000                	.2byte	0x0
 3b8:	0000                	.2byte	0x0
 3ba:	0000                	.2byte	0x0
 3bc:	0000                	.2byte	0x0
 3be:	0000                	.2byte	0x0
 3c0:	0000                	.2byte	0x0
 3c2:	0000                	.2byte	0x0
