
and.out:     file format elf64-littleriscv


Disassembly of section .text.init:

0000000000000000 <_start>:
   0:	00000093          	li	ra,0
   4:	00000113          	li	sp,0
   8:	00000193          	li	gp,0
   c:	00000213          	li	tp,0
  10:	00000293          	li	t0,0
  14:	00000313          	li	t1,0
  18:	00000393          	li	t2,0
  1c:	00000413          	li	s0,0
  20:	00000493          	li	s1,0
  24:	00000513          	li	a0,0
  28:	00000593          	li	a1,0
  2c:	00000613          	li	a2,0
  30:	00000693          	li	a3,0
  34:	00000713          	li	a4,0
  38:	00000793          	li	a5,0
  3c:	00000813          	li	a6,0
  40:	00000893          	li	a7,0
  44:	00000913          	li	s2,0
  48:	00000993          	li	s3,0
  4c:	00000a13          	li	s4,0
  50:	00000a93          	li	s5,0
  54:	00000b13          	li	s6,0
  58:	00000b93          	li	s7,0
  5c:	00000c13          	li	s8,0
  60:	00000c93          	li	s9,0
  64:	00000d13          	li	s10,0
  68:	00000d93          	li	s11,0
  6c:	00000e13          	li	t3,0
  70:	00000e93          	li	t4,0
  74:	00000f13          	li	t5,0
  78:	00000f93          	li	t6,0
  7c:	00000193          	li	gp,0

0000000000000080 <test_2>:
  80:	00200193          	li	gp,2
  84:	000100b7          	lui	ra,0x10
  88:	f010809b          	addw	ra,ra,-255 # ff01 <begin_signature+0xbf01>
  8c:	01009093          	sll	ra,ra,0x10
  90:	f0008093          	add	ra,ra,-256
  94:	0f0f1137          	lui	sp,0xf0f1
  98:	f0f1011b          	addw	sp,sp,-241 # f0f0f0f <begin_signature+0xf0ecf0f>
  9c:	0020f733          	and	a4,ra,sp
  a0:	0f0013b7          	lui	t2,0xf001
  a4:	f003839b          	addw	t2,t2,-256 # f000f00 <begin_signature+0xeffcf00>
  a8:	52771863          	bne	a4,t2,5d8 <fail>

00000000000000ac <test_3>:
  ac:	00300193          	li	gp,3
  b0:	0ff010b7          	lui	ra,0xff01
  b4:	ff00809b          	addw	ra,ra,-16 # ff00ff0 <begin_signature+0xfefcff0>
  b8:	000f1137          	lui	sp,0xf1
  bc:	f0f1011b          	addw	sp,sp,-241 # f0f0f <begin_signature+0xecf0f>
  c0:	00c11113          	sll	sp,sp,0xc
  c4:	0f010113          	add	sp,sp,240
  c8:	0020f733          	and	a4,ra,sp
  cc:	00f003b7          	lui	t2,0xf00
  d0:	0f03839b          	addw	t2,t2,240 # f000f0 <begin_signature+0xefc0f0>
  d4:	50771263          	bne	a4,t2,5d8 <fail>

00000000000000d8 <test_4>:
  d8:	00400193          	li	gp,4
  dc:	00ff00b7          	lui	ra,0xff0
  e0:	0ff0809b          	addw	ra,ra,255 # ff00ff <begin_signature+0xfec0ff>
  e4:	0f0f1137          	lui	sp,0xf0f1
  e8:	f0f1011b          	addw	sp,sp,-241 # f0f0f0f <begin_signature+0xf0ecf0f>
  ec:	0020f733          	and	a4,ra,sp
  f0:	000f03b7          	lui	t2,0xf0
  f4:	00f3839b          	addw	t2,t2,15 # f000f <begin_signature+0xec00f>
  f8:	4e771063          	bne	a4,t2,5d8 <fail>

00000000000000fc <test_5>:
  fc:	00500193          	li	gp,5
 100:	000f00b7          	lui	ra,0xf0
 104:	0ff0809b          	addw	ra,ra,255 # f00ff <begin_signature+0xec0ff>
 108:	00c09093          	sll	ra,ra,0xc
 10c:	00f08093          	add	ra,ra,15
 110:	000f1137          	lui	sp,0xf1
 114:	f0f1011b          	addw	sp,sp,-241 # f0f0f <begin_signature+0xecf0f>
 118:	00c11113          	sll	sp,sp,0xc
 11c:	0f010113          	add	sp,sp,240
 120:	0020f733          	and	a4,ra,sp
 124:	000f03b7          	lui	t2,0xf0
 128:	00f3839b          	addw	t2,t2,15 # f000f <begin_signature+0xec00f>
 12c:	00c39393          	sll	t2,t2,0xc
 130:	4a771463          	bne	a4,t2,5d8 <fail>

0000000000000134 <test_6>:
 134:	00600193          	li	gp,6
 138:	000100b7          	lui	ra,0x10
 13c:	f010809b          	addw	ra,ra,-255 # ff01 <begin_signature+0xbf01>
 140:	01009093          	sll	ra,ra,0x10
 144:	f0008093          	add	ra,ra,-256
 148:	0f0f1137          	lui	sp,0xf0f1
 14c:	f0f1011b          	addw	sp,sp,-241 # f0f0f0f <begin_signature+0xf0ecf0f>
 150:	0020f0b3          	and	ra,ra,sp
 154:	0f0013b7          	lui	t2,0xf001
 158:	f003839b          	addw	t2,t2,-256 # f000f00 <begin_signature+0xeffcf00>
 15c:	46709e63          	bne	ra,t2,5d8 <fail>

0000000000000160 <test_7>:
 160:	00700193          	li	gp,7
 164:	0ff010b7          	lui	ra,0xff01
 168:	ff00809b          	addw	ra,ra,-16 # ff00ff0 <begin_signature+0xfefcff0>
 16c:	000f1137          	lui	sp,0xf1
 170:	f0f1011b          	addw	sp,sp,-241 # f0f0f <begin_signature+0xecf0f>
 174:	00c11113          	sll	sp,sp,0xc
 178:	0f010113          	add	sp,sp,240
 17c:	0020f133          	and	sp,ra,sp
 180:	00f003b7          	lui	t2,0xf00
 184:	0f03839b          	addw	t2,t2,240 # f000f0 <begin_signature+0xefc0f0>
 188:	44711863          	bne	sp,t2,5d8 <fail>

000000000000018c <test_8>:
 18c:	00800193          	li	gp,8
 190:	000100b7          	lui	ra,0x10
 194:	f010809b          	addw	ra,ra,-255 # ff01 <begin_signature+0xbf01>
 198:	01009093          	sll	ra,ra,0x10
 19c:	f0008093          	add	ra,ra,-256
 1a0:	0010f0b3          	and	ra,ra,ra
 1a4:	000103b7          	lui	t2,0x10
 1a8:	f013839b          	addw	t2,t2,-255 # ff01 <begin_signature+0xbf01>
 1ac:	01039393          	sll	t2,t2,0x10
 1b0:	f0038393          	add	t2,t2,-256
 1b4:	42709263          	bne	ra,t2,5d8 <fail>

00000000000001b8 <test_9>:
 1b8:	00900193          	li	gp,9
 1bc:	00000213          	li	tp,0
 1c0:	000100b7          	lui	ra,0x10
 1c4:	f010809b          	addw	ra,ra,-255 # ff01 <begin_signature+0xbf01>
 1c8:	01009093          	sll	ra,ra,0x10
 1cc:	f0008093          	add	ra,ra,-256
 1d0:	0f0f1137          	lui	sp,0xf0f1
 1d4:	f0f1011b          	addw	sp,sp,-241 # f0f0f0f <begin_signature+0xf0ecf0f>
 1d8:	0020f733          	and	a4,ra,sp
 1dc:	00070313          	mv	t1,a4
 1e0:	00120213          	add	tp,tp,1 # 1 <_start+0x1>
 1e4:	00200293          	li	t0,2
 1e8:	fc521ce3          	bne	tp,t0,1c0 <test_9+0x8>
 1ec:	0f0013b7          	lui	t2,0xf001
 1f0:	f003839b          	addw	t2,t2,-256 # f000f00 <begin_signature+0xeffcf00>
 1f4:	3e731263          	bne	t1,t2,5d8 <fail>

00000000000001f8 <test_10>:
 1f8:	00a00193          	li	gp,10
 1fc:	00000213          	li	tp,0
 200:	0ff010b7          	lui	ra,0xff01
 204:	ff00809b          	addw	ra,ra,-16 # ff00ff0 <begin_signature+0xfefcff0>
 208:	000f1137          	lui	sp,0xf1
 20c:	f0f1011b          	addw	sp,sp,-241 # f0f0f <begin_signature+0xecf0f>
 210:	00c11113          	sll	sp,sp,0xc
 214:	0f010113          	add	sp,sp,240
 218:	0020f733          	and	a4,ra,sp
 21c:	00000013          	nop
 220:	00070313          	mv	t1,a4
 224:	00120213          	add	tp,tp,1 # 1 <_start+0x1>
 228:	00200293          	li	t0,2
 22c:	fc521ae3          	bne	tp,t0,200 <test_10+0x8>
 230:	00f003b7          	lui	t2,0xf00
 234:	0f03839b          	addw	t2,t2,240 # f000f0 <begin_signature+0xefc0f0>
 238:	3a731063          	bne	t1,t2,5d8 <fail>

000000000000023c <test_11>:
 23c:	00b00193          	li	gp,11
 240:	00000213          	li	tp,0
 244:	00ff00b7          	lui	ra,0xff0
 248:	0ff0809b          	addw	ra,ra,255 # ff00ff <begin_signature+0xfec0ff>
 24c:	0f0f1137          	lui	sp,0xf0f1
 250:	f0f1011b          	addw	sp,sp,-241 # f0f0f0f <begin_signature+0xf0ecf0f>
 254:	0020f733          	and	a4,ra,sp
 258:	00000013          	nop
 25c:	00000013          	nop
 260:	00070313          	mv	t1,a4
 264:	00120213          	add	tp,tp,1 # 1 <_start+0x1>
 268:	00200293          	li	t0,2
 26c:	fc521ce3          	bne	tp,t0,244 <test_11+0x8>
 270:	000f03b7          	lui	t2,0xf0
 274:	00f3839b          	addw	t2,t2,15 # f000f <begin_signature+0xec00f>
 278:	36731063          	bne	t1,t2,5d8 <fail>

000000000000027c <test_12>:
 27c:	00c00193          	li	gp,12
 280:	00000213          	li	tp,0
 284:	000100b7          	lui	ra,0x10
 288:	f010809b          	addw	ra,ra,-255 # ff01 <begin_signature+0xbf01>
 28c:	01009093          	sll	ra,ra,0x10
 290:	f0008093          	add	ra,ra,-256
 294:	0f0f1137          	lui	sp,0xf0f1
 298:	f0f1011b          	addw	sp,sp,-241 # f0f0f0f <begin_signature+0xf0ecf0f>
 29c:	0020f733          	and	a4,ra,sp
 2a0:	00120213          	add	tp,tp,1 # 1 <_start+0x1>
 2a4:	00200293          	li	t0,2
 2a8:	fc521ee3          	bne	tp,t0,284 <test_12+0x8>
 2ac:	0f0013b7          	lui	t2,0xf001
 2b0:	f003839b          	addw	t2,t2,-256 # f000f00 <begin_signature+0xeffcf00>
 2b4:	32771263          	bne	a4,t2,5d8 <fail>

00000000000002b8 <test_13>:
 2b8:	00d00193          	li	gp,13
 2bc:	00000213          	li	tp,0
 2c0:	0ff010b7          	lui	ra,0xff01
 2c4:	ff00809b          	addw	ra,ra,-16 # ff00ff0 <begin_signature+0xfefcff0>
 2c8:	000f1137          	lui	sp,0xf1
 2cc:	f0f1011b          	addw	sp,sp,-241 # f0f0f <begin_signature+0xecf0f>
 2d0:	00c11113          	sll	sp,sp,0xc
 2d4:	0f010113          	add	sp,sp,240
 2d8:	00000013          	nop
 2dc:	0020f733          	and	a4,ra,sp
 2e0:	00120213          	add	tp,tp,1 # 1 <_start+0x1>
 2e4:	00200293          	li	t0,2
 2e8:	fc521ce3          	bne	tp,t0,2c0 <test_13+0x8>
 2ec:	00f003b7          	lui	t2,0xf00
 2f0:	0f03839b          	addw	t2,t2,240 # f000f0 <begin_signature+0xefc0f0>
 2f4:	2e771263          	bne	a4,t2,5d8 <fail>

00000000000002f8 <test_14>:
 2f8:	00e00193          	li	gp,14
 2fc:	00000213          	li	tp,0
 300:	00ff00b7          	lui	ra,0xff0
 304:	0ff0809b          	addw	ra,ra,255 # ff00ff <begin_signature+0xfec0ff>
 308:	0f0f1137          	lui	sp,0xf0f1
 30c:	f0f1011b          	addw	sp,sp,-241 # f0f0f0f <begin_signature+0xf0ecf0f>
 310:	00000013          	nop
 314:	00000013          	nop
 318:	0020f733          	and	a4,ra,sp
 31c:	00120213          	add	tp,tp,1 # 1 <_start+0x1>
 320:	00200293          	li	t0,2
 324:	fc521ee3          	bne	tp,t0,300 <test_14+0x8>
 328:	000f03b7          	lui	t2,0xf0
 32c:	00f3839b          	addw	t2,t2,15 # f000f <begin_signature+0xec00f>
 330:	2a771463          	bne	a4,t2,5d8 <fail>

0000000000000334 <test_15>:
 334:	00f00193          	li	gp,15
 338:	00000213          	li	tp,0
 33c:	000100b7          	lui	ra,0x10
 340:	f010809b          	addw	ra,ra,-255 # ff01 <begin_signature+0xbf01>
 344:	01009093          	sll	ra,ra,0x10
 348:	f0008093          	add	ra,ra,-256
 34c:	00000013          	nop
 350:	0f0f1137          	lui	sp,0xf0f1
 354:	f0f1011b          	addw	sp,sp,-241 # f0f0f0f <begin_signature+0xf0ecf0f>
 358:	0020f733          	and	a4,ra,sp
 35c:	00120213          	add	tp,tp,1 # 1 <_start+0x1>
 360:	00200293          	li	t0,2
 364:	fc521ce3          	bne	tp,t0,33c <test_15+0x8>
 368:	0f0013b7          	lui	t2,0xf001
 36c:	f003839b          	addw	t2,t2,-256 # f000f00 <begin_signature+0xeffcf00>
 370:	26771463          	bne	a4,t2,5d8 <fail>

0000000000000374 <test_16>:
 374:	01000193          	li	gp,16
 378:	00000213          	li	tp,0
 37c:	0ff010b7          	lui	ra,0xff01
 380:	ff00809b          	addw	ra,ra,-16 # ff00ff0 <begin_signature+0xfefcff0>
 384:	00000013          	nop
 388:	000f1137          	lui	sp,0xf1
 38c:	f0f1011b          	addw	sp,sp,-241 # f0f0f <begin_signature+0xecf0f>
 390:	00c11113          	sll	sp,sp,0xc
 394:	0f010113          	add	sp,sp,240
 398:	00000013          	nop
 39c:	0020f733          	and	a4,ra,sp
 3a0:	00120213          	add	tp,tp,1 # 1 <_start+0x1>
 3a4:	00200293          	li	t0,2
 3a8:	fc521ae3          	bne	tp,t0,37c <test_16+0x8>
 3ac:	00f003b7          	lui	t2,0xf00
 3b0:	0f03839b          	addw	t2,t2,240 # f000f0 <begin_signature+0xefc0f0>
 3b4:	22771263          	bne	a4,t2,5d8 <fail>

00000000000003b8 <test_17>:
 3b8:	01100193          	li	gp,17
 3bc:	00000213          	li	tp,0
 3c0:	00ff00b7          	lui	ra,0xff0
 3c4:	0ff0809b          	addw	ra,ra,255 # ff00ff <begin_signature+0xfec0ff>
 3c8:	00000013          	nop
 3cc:	00000013          	nop
 3d0:	0f0f1137          	lui	sp,0xf0f1
 3d4:	f0f1011b          	addw	sp,sp,-241 # f0f0f0f <begin_signature+0xf0ecf0f>
 3d8:	0020f733          	and	a4,ra,sp
 3dc:	00120213          	add	tp,tp,1 # 1 <_start+0x1>
 3e0:	00200293          	li	t0,2
 3e4:	fc521ee3          	bne	tp,t0,3c0 <test_17+0x8>
 3e8:	000f03b7          	lui	t2,0xf0
 3ec:	00f3839b          	addw	t2,t2,15 # f000f <begin_signature+0xec00f>
 3f0:	1e771463          	bne	a4,t2,5d8 <fail>

00000000000003f4 <test_18>:
 3f4:	01200193          	li	gp,18
 3f8:	00000213          	li	tp,0
 3fc:	0f0f1137          	lui	sp,0xf0f1
 400:	f0f1011b          	addw	sp,sp,-241 # f0f0f0f <begin_signature+0xf0ecf0f>
 404:	000100b7          	lui	ra,0x10
 408:	f010809b          	addw	ra,ra,-255 # ff01 <begin_signature+0xbf01>
 40c:	01009093          	sll	ra,ra,0x10
 410:	f0008093          	add	ra,ra,-256
 414:	0020f733          	and	a4,ra,sp
 418:	00120213          	add	tp,tp,1 # 1 <_start+0x1>
 41c:	00200293          	li	t0,2
 420:	fc521ee3          	bne	tp,t0,3fc <test_18+0x8>
 424:	0f0013b7          	lui	t2,0xf001
 428:	f003839b          	addw	t2,t2,-256 # f000f00 <begin_signature+0xeffcf00>
 42c:	1a771663          	bne	a4,t2,5d8 <fail>

0000000000000430 <test_19>:
 430:	01300193          	li	gp,19
 434:	00000213          	li	tp,0
 438:	000f1137          	lui	sp,0xf1
 43c:	f0f1011b          	addw	sp,sp,-241 # f0f0f <begin_signature+0xecf0f>
 440:	00c11113          	sll	sp,sp,0xc
 444:	0f010113          	add	sp,sp,240
 448:	0ff010b7          	lui	ra,0xff01
 44c:	ff00809b          	addw	ra,ra,-16 # ff00ff0 <begin_signature+0xfefcff0>
 450:	00000013          	nop
 454:	0020f733          	and	a4,ra,sp
 458:	00120213          	add	tp,tp,1 # 1 <_start+0x1>
 45c:	00200293          	li	t0,2
 460:	fc521ce3          	bne	tp,t0,438 <test_19+0x8>
 464:	00f003b7          	lui	t2,0xf00
 468:	0f03839b          	addw	t2,t2,240 # f000f0 <begin_signature+0xefc0f0>
 46c:	16771663          	bne	a4,t2,5d8 <fail>

0000000000000470 <test_20>:
 470:	01400193          	li	gp,20
 474:	00000213          	li	tp,0
 478:	0f0f1137          	lui	sp,0xf0f1
 47c:	f0f1011b          	addw	sp,sp,-241 # f0f0f0f <begin_signature+0xf0ecf0f>
 480:	00ff00b7          	lui	ra,0xff0
 484:	0ff0809b          	addw	ra,ra,255 # ff00ff <begin_signature+0xfec0ff>
 488:	00000013          	nop
 48c:	00000013          	nop
 490:	0020f733          	and	a4,ra,sp
 494:	00120213          	add	tp,tp,1 # 1 <_start+0x1>
 498:	00200293          	li	t0,2
 49c:	fc521ee3          	bne	tp,t0,478 <test_20+0x8>
 4a0:	000f03b7          	lui	t2,0xf0
 4a4:	00f3839b          	addw	t2,t2,15 # f000f <begin_signature+0xec00f>
 4a8:	12771863          	bne	a4,t2,5d8 <fail>

00000000000004ac <test_21>:
 4ac:	01500193          	li	gp,21
 4b0:	00000213          	li	tp,0
 4b4:	0f0f1137          	lui	sp,0xf0f1
 4b8:	f0f1011b          	addw	sp,sp,-241 # f0f0f0f <begin_signature+0xf0ecf0f>
 4bc:	00000013          	nop
 4c0:	000100b7          	lui	ra,0x10
 4c4:	f010809b          	addw	ra,ra,-255 # ff01 <begin_signature+0xbf01>
 4c8:	01009093          	sll	ra,ra,0x10
 4cc:	f0008093          	add	ra,ra,-256
 4d0:	0020f733          	and	a4,ra,sp
 4d4:	00120213          	add	tp,tp,1 # 1 <_start+0x1>
 4d8:	00200293          	li	t0,2
 4dc:	fc521ce3          	bne	tp,t0,4b4 <test_21+0x8>
 4e0:	0f0013b7          	lui	t2,0xf001
 4e4:	f003839b          	addw	t2,t2,-256 # f000f00 <begin_signature+0xeffcf00>
 4e8:	0e771863          	bne	a4,t2,5d8 <fail>

00000000000004ec <test_22>:
 4ec:	01600193          	li	gp,22
 4f0:	00000213          	li	tp,0
 4f4:	000f1137          	lui	sp,0xf1
 4f8:	f0f1011b          	addw	sp,sp,-241 # f0f0f <begin_signature+0xecf0f>
 4fc:	00c11113          	sll	sp,sp,0xc
 500:	0f010113          	add	sp,sp,240
 504:	00000013          	nop
 508:	0ff010b7          	lui	ra,0xff01
 50c:	ff00809b          	addw	ra,ra,-16 # ff00ff0 <begin_signature+0xfefcff0>
 510:	00000013          	nop
 514:	0020f733          	and	a4,ra,sp
 518:	00120213          	add	tp,tp,1 # 1 <_start+0x1>
 51c:	00200293          	li	t0,2
 520:	fc521ae3          	bne	tp,t0,4f4 <test_22+0x8>
 524:	00f003b7          	lui	t2,0xf00
 528:	0f03839b          	addw	t2,t2,240 # f000f0 <begin_signature+0xefc0f0>
 52c:	0a771663          	bne	a4,t2,5d8 <fail>

0000000000000530 <test_23>:
 530:	01700193          	li	gp,23
 534:	00000213          	li	tp,0
 538:	0f0f1137          	lui	sp,0xf0f1
 53c:	f0f1011b          	addw	sp,sp,-241 # f0f0f0f <begin_signature+0xf0ecf0f>
 540:	00000013          	nop
 544:	00000013          	nop
 548:	00ff00b7          	lui	ra,0xff0
 54c:	0ff0809b          	addw	ra,ra,255 # ff00ff <begin_signature+0xfec0ff>
 550:	0020f733          	and	a4,ra,sp
 554:	00120213          	add	tp,tp,1 # 1 <_start+0x1>
 558:	00200293          	li	t0,2
 55c:	fc521ee3          	bne	tp,t0,538 <test_23+0x8>
 560:	000f03b7          	lui	t2,0xf0
 564:	00f3839b          	addw	t2,t2,15 # f000f <begin_signature+0xec00f>
 568:	06771863          	bne	a4,t2,5d8 <fail>

000000000000056c <test_24>:
 56c:	01800193          	li	gp,24
 570:	000100b7          	lui	ra,0x10
 574:	f010809b          	addw	ra,ra,-255 # ff01 <begin_signature+0xbf01>
 578:	01009093          	sll	ra,ra,0x10
 57c:	f0008093          	add	ra,ra,-256
 580:	00107133          	and	sp,zero,ra
 584:	00000393          	li	t2,0
 588:	04711863          	bne	sp,t2,5d8 <fail>

000000000000058c <test_25>:
 58c:	01900193          	li	gp,25
 590:	00ff00b7          	lui	ra,0xff0
 594:	0ff0809b          	addw	ra,ra,255 # ff00ff <begin_signature+0xfec0ff>
 598:	0000f133          	and	sp,ra,zero
 59c:	00000393          	li	t2,0
 5a0:	02711c63          	bne	sp,t2,5d8 <fail>

00000000000005a4 <test_26>:
 5a4:	01a00193          	li	gp,26
 5a8:	000070b3          	and	ra,zero,zero
 5ac:	00000393          	li	t2,0
 5b0:	02709463          	bne	ra,t2,5d8 <fail>

00000000000005b4 <test_27>:
 5b4:	01b00193          	li	gp,27
 5b8:	111110b7          	lui	ra,0x11111
 5bc:	1110809b          	addw	ra,ra,273 # 11111111 <_end+0x11110c9>
 5c0:	22222137          	lui	sp,0x22222
 5c4:	2221011b          	addw	sp,sp,546 # 22222222 <_end+0x122221da>
 5c8:	0020f033          	and	zero,ra,sp
 5cc:	00000393          	li	t2,0
 5d0:	00701463          	bne	zero,t2,5d8 <fail>
 5d4:	02301263          	bne	zero,gp,5f8 <pass>

00000000000005d8 <fail>:
 5d8:	0ff0000f          	fence
 5dc:	00018063          	beqz	gp,5dc <fail+0x4>
 5e0:	00119193          	sll	gp,gp,0x1
 5e4:	0011e193          	or	gp,gp,1
 5e8:	10000297          	auipc	t0,0x10000
 5ec:	a1828293          	add	t0,t0,-1512 # 10000000 <tohost>
 5f0:	0032a023          	sw	gp,0(t0)
 5f4:	0000006f          	j	5f4 <fail+0x1c>

00000000000005f8 <pass>:
 5f8:	0ff0000f          	fence
 5fc:	00100193          	li	gp,1
 600:	10000297          	auipc	t0,0x10000
 604:	a0028293          	add	t0,t0,-1536 # 10000000 <tohost>
 608:	0032a023          	sw	gp,0(t0)
 60c:	0000006f          	j	60c <pass+0x14>
 610:	c0001073          	unimp
 614:	0000                	.2byte	0x0
 616:	0000                	.2byte	0x0
 618:	0000                	.2byte	0x0
 61a:	0000                	.2byte	0x0
 61c:	0000                	.2byte	0x0
 61e:	0000                	.2byte	0x0
 620:	0000                	.2byte	0x0
 622:	0000                	.2byte	0x0
 624:	0000                	.2byte	0x0
 626:	0000                	.2byte	0x0
 628:	0000                	.2byte	0x0
 62a:	0000                	.2byte	0x0
 62c:	0000                	.2byte	0x0
 62e:	0000                	.2byte	0x0
 630:	0000                	.2byte	0x0
 632:	0000                	.2byte	0x0
 634:	0000                	.2byte	0x0
 636:	0000                	.2byte	0x0
 638:	0000                	.2byte	0x0
 63a:	0000                	.2byte	0x0
 63c:	0000                	.2byte	0x0
 63e:	0000                	.2byte	0x0
 640:	0000                	.2byte	0x0
 642:	0000                	.2byte	0x0
