
bgeu.out:     file format elf64-littleriscv


Disassembly of section .text.init:

0000000000000000 <_start>:
   0:	00000093          	li	ra,0
   4:	00000113          	li	sp,0
   8:	00000193          	li	gp,0
   c:	00000213          	li	tp,0
  10:	00000293          	li	t0,0
  14:	00000313          	li	t1,0
  18:	00000393          	li	t2,0
  1c:	00000413          	li	s0,0
  20:	00000493          	li	s1,0
  24:	00000513          	li	a0,0
  28:	00000593          	li	a1,0
  2c:	00000613          	li	a2,0
  30:	00000693          	li	a3,0
  34:	00000713          	li	a4,0
  38:	00000793          	li	a5,0
  3c:	00000813          	li	a6,0
  40:	00000893          	li	a7,0
  44:	00000913          	li	s2,0
  48:	00000993          	li	s3,0
  4c:	00000a13          	li	s4,0
  50:	00000a93          	li	s5,0
  54:	00000b13          	li	s6,0
  58:	00000b93          	li	s7,0
  5c:	00000c13          	li	s8,0
  60:	00000c93          	li	s9,0
  64:	00000d13          	li	s10,0
  68:	00000d93          	li	s11,0
  6c:	00000e13          	li	t3,0
  70:	00000e93          	li	t4,0
  74:	00000f13          	li	t5,0
  78:	00000f93          	li	t6,0
  7c:	00000193          	li	gp,0

0000000000000080 <test_2>:
  80:	00200193          	li	gp,2
  84:	00000093          	li	ra,0
  88:	00000113          	li	sp,0
  8c:	0020f663          	bgeu	ra,sp,98 <test_2+0x18>
  90:	3e301463          	bne	zero,gp,478 <fail>
  94:	00301663          	bne	zero,gp,a0 <test_3>
  98:	fe20fee3          	bgeu	ra,sp,94 <test_2+0x14>
  9c:	3c301e63          	bne	zero,gp,478 <fail>

00000000000000a0 <test_3>:
  a0:	00300193          	li	gp,3
  a4:	00100093          	li	ra,1
  a8:	00100113          	li	sp,1
  ac:	0020f663          	bgeu	ra,sp,b8 <test_3+0x18>
  b0:	3c301463          	bne	zero,gp,478 <fail>
  b4:	00301663          	bne	zero,gp,c0 <test_4>
  b8:	fe20fee3          	bgeu	ra,sp,b4 <test_3+0x14>
  bc:	3a301e63          	bne	zero,gp,478 <fail>

00000000000000c0 <test_4>:
  c0:	00400193          	li	gp,4
  c4:	0010009b          	addw	ra,zero,1
  c8:	02009093          	sll	ra,ra,0x20
  cc:	fff08093          	add	ra,ra,-1
  d0:	0010011b          	addw	sp,zero,1
  d4:	02011113          	sll	sp,sp,0x20
  d8:	fff10113          	add	sp,sp,-1
  dc:	0020f663          	bgeu	ra,sp,e8 <test_4+0x28>
  e0:	38301c63          	bne	zero,gp,478 <fail>
  e4:	00301663          	bne	zero,gp,f0 <test_5>
  e8:	fe20fee3          	bgeu	ra,sp,e4 <test_4+0x24>
  ec:	38301663          	bne	zero,gp,478 <fail>

00000000000000f0 <test_5>:
  f0:	00500193          	li	gp,5
  f4:	00100093          	li	ra,1
  f8:	00000113          	li	sp,0
  fc:	0020f663          	bgeu	ra,sp,108 <test_5+0x18>
 100:	36301c63          	bne	zero,gp,478 <fail>
 104:	00301663          	bne	zero,gp,110 <test_6>
 108:	fe20fee3          	bgeu	ra,sp,104 <test_5+0x14>
 10c:	36301663          	bne	zero,gp,478 <fail>

0000000000000110 <test_6>:
 110:	00600193          	li	gp,6
 114:	0010009b          	addw	ra,zero,1
 118:	02009093          	sll	ra,ra,0x20
 11c:	fff08093          	add	ra,ra,-1
 120:	0010011b          	addw	sp,zero,1
 124:	02011113          	sll	sp,sp,0x20
 128:	ffe10113          	add	sp,sp,-2
 12c:	0020f663          	bgeu	ra,sp,138 <test_6+0x28>
 130:	34301463          	bne	zero,gp,478 <fail>
 134:	00301663          	bne	zero,gp,140 <test_7>
 138:	fe20fee3          	bgeu	ra,sp,134 <test_6+0x24>
 13c:	32301e63          	bne	zero,gp,478 <fail>

0000000000000140 <test_7>:
 140:	00700193          	li	gp,7
 144:	0010009b          	addw	ra,zero,1
 148:	02009093          	sll	ra,ra,0x20
 14c:	fff08093          	add	ra,ra,-1
 150:	00000113          	li	sp,0
 154:	0020f663          	bgeu	ra,sp,160 <test_7+0x20>
 158:	32301063          	bne	zero,gp,478 <fail>
 15c:	00301663          	bne	zero,gp,168 <test_8>
 160:	fe20fee3          	bgeu	ra,sp,15c <test_7+0x1c>
 164:	30301a63          	bne	zero,gp,478 <fail>

0000000000000168 <test_8>:
 168:	00800193          	li	gp,8
 16c:	00000093          	li	ra,0
 170:	00100113          	li	sp,1
 174:	0020f463          	bgeu	ra,sp,17c <test_8+0x14>
 178:	00301463          	bne	zero,gp,180 <test_8+0x18>
 17c:	2e301e63          	bne	zero,gp,478 <fail>
 180:	fe20fee3          	bgeu	ra,sp,17c <test_8+0x14>

0000000000000184 <test_9>:
 184:	00900193          	li	gp,9
 188:	0010009b          	addw	ra,zero,1
 18c:	02009093          	sll	ra,ra,0x20
 190:	ffe08093          	add	ra,ra,-2
 194:	0010011b          	addw	sp,zero,1
 198:	02011113          	sll	sp,sp,0x20
 19c:	fff10113          	add	sp,sp,-1
 1a0:	0020f463          	bgeu	ra,sp,1a8 <test_9+0x24>
 1a4:	00301463          	bne	zero,gp,1ac <test_9+0x28>
 1a8:	2c301863          	bne	zero,gp,478 <fail>
 1ac:	fe20fee3          	bgeu	ra,sp,1a8 <test_9+0x24>

00000000000001b0 <test_10>:
 1b0:	00a00193          	li	gp,10
 1b4:	00000093          	li	ra,0
 1b8:	0010011b          	addw	sp,zero,1
 1bc:	02011113          	sll	sp,sp,0x20
 1c0:	fff10113          	add	sp,sp,-1
 1c4:	0020f463          	bgeu	ra,sp,1cc <test_10+0x1c>
 1c8:	00301463          	bne	zero,gp,1d0 <test_10+0x20>
 1cc:	2a301663          	bne	zero,gp,478 <fail>
 1d0:	fe20fee3          	bgeu	ra,sp,1cc <test_10+0x1c>

00000000000001d4 <test_11>:
 1d4:	00b00193          	li	gp,11
 1d8:	800000b7          	lui	ra,0x80000
 1dc:	fff0809b          	addw	ra,ra,-1 # 7fffffff <_end+0x6fffffb7>
 1e0:	0010011b          	addw	sp,zero,1
 1e4:	01f11113          	sll	sp,sp,0x1f
 1e8:	0020f463          	bgeu	ra,sp,1f0 <test_11+0x1c>
 1ec:	00301463          	bne	zero,gp,1f4 <test_11+0x20>
 1f0:	28301463          	bne	zero,gp,478 <fail>
 1f4:	fe20fee3          	bgeu	ra,sp,1f0 <test_11+0x1c>

00000000000001f8 <test_12>:
 1f8:	00c00193          	li	gp,12
 1fc:	00000213          	li	tp,0
 200:	00f0009b          	addw	ra,zero,15
 204:	01c09093          	sll	ra,ra,0x1c
 208:	fff08093          	add	ra,ra,-1
 20c:	00f0011b          	addw	sp,zero,15
 210:	01c11113          	sll	sp,sp,0x1c
 214:	2620f263          	bgeu	ra,sp,478 <fail>
 218:	00120213          	add	tp,tp,1 # 1 <_start+0x1>
 21c:	00200293          	li	t0,2
 220:	fe5210e3          	bne	tp,t0,200 <test_12+0x8>

0000000000000224 <test_13>:
 224:	00d00193          	li	gp,13
 228:	00000213          	li	tp,0
 22c:	00f0009b          	addw	ra,zero,15
 230:	01c09093          	sll	ra,ra,0x1c
 234:	fff08093          	add	ra,ra,-1
 238:	00f0011b          	addw	sp,zero,15
 23c:	01c11113          	sll	sp,sp,0x1c
 240:	00000013          	nop
 244:	2220fa63          	bgeu	ra,sp,478 <fail>
 248:	00120213          	add	tp,tp,1 # 1 <_start+0x1>
 24c:	00200293          	li	t0,2
 250:	fc521ee3          	bne	tp,t0,22c <test_13+0x8>

0000000000000254 <test_14>:
 254:	00e00193          	li	gp,14
 258:	00000213          	li	tp,0
 25c:	00f0009b          	addw	ra,zero,15
 260:	01c09093          	sll	ra,ra,0x1c
 264:	fff08093          	add	ra,ra,-1
 268:	00f0011b          	addw	sp,zero,15
 26c:	01c11113          	sll	sp,sp,0x1c
 270:	00000013          	nop
 274:	00000013          	nop
 278:	2020f063          	bgeu	ra,sp,478 <fail>
 27c:	00120213          	add	tp,tp,1 # 1 <_start+0x1>
 280:	00200293          	li	t0,2
 284:	fc521ce3          	bne	tp,t0,25c <test_14+0x8>

0000000000000288 <test_15>:
 288:	00f00193          	li	gp,15
 28c:	00000213          	li	tp,0
 290:	00f0009b          	addw	ra,zero,15
 294:	01c09093          	sll	ra,ra,0x1c
 298:	fff08093          	add	ra,ra,-1
 29c:	00000013          	nop
 2a0:	00f0011b          	addw	sp,zero,15
 2a4:	01c11113          	sll	sp,sp,0x1c
 2a8:	1c20f863          	bgeu	ra,sp,478 <fail>
 2ac:	00120213          	add	tp,tp,1 # 1 <_start+0x1>
 2b0:	00200293          	li	t0,2
 2b4:	fc521ee3          	bne	tp,t0,290 <test_15+0x8>

00000000000002b8 <test_16>:
 2b8:	01000193          	li	gp,16
 2bc:	00000213          	li	tp,0
 2c0:	00f0009b          	addw	ra,zero,15
 2c4:	01c09093          	sll	ra,ra,0x1c
 2c8:	fff08093          	add	ra,ra,-1
 2cc:	00000013          	nop
 2d0:	00f0011b          	addw	sp,zero,15
 2d4:	01c11113          	sll	sp,sp,0x1c
 2d8:	00000013          	nop
 2dc:	1820fe63          	bgeu	ra,sp,478 <fail>
 2e0:	00120213          	add	tp,tp,1 # 1 <_start+0x1>
 2e4:	00200293          	li	t0,2
 2e8:	fc521ce3          	bne	tp,t0,2c0 <test_16+0x8>

00000000000002ec <test_17>:
 2ec:	01100193          	li	gp,17
 2f0:	00000213          	li	tp,0
 2f4:	00f0009b          	addw	ra,zero,15
 2f8:	01c09093          	sll	ra,ra,0x1c
 2fc:	fff08093          	add	ra,ra,-1
 300:	00000013          	nop
 304:	00000013          	nop
 308:	00f0011b          	addw	sp,zero,15
 30c:	01c11113          	sll	sp,sp,0x1c
 310:	1620f463          	bgeu	ra,sp,478 <fail>
 314:	00120213          	add	tp,tp,1 # 1 <_start+0x1>
 318:	00200293          	li	t0,2
 31c:	fc521ce3          	bne	tp,t0,2f4 <test_17+0x8>

0000000000000320 <test_18>:
 320:	01200193          	li	gp,18
 324:	00000213          	li	tp,0
 328:	00f0009b          	addw	ra,zero,15
 32c:	01c09093          	sll	ra,ra,0x1c
 330:	fff08093          	add	ra,ra,-1
 334:	00f0011b          	addw	sp,zero,15
 338:	01c11113          	sll	sp,sp,0x1c
 33c:	1220fe63          	bgeu	ra,sp,478 <fail>
 340:	00120213          	add	tp,tp,1 # 1 <_start+0x1>
 344:	00200293          	li	t0,2
 348:	fe5210e3          	bne	tp,t0,328 <test_18+0x8>

000000000000034c <test_19>:
 34c:	01300193          	li	gp,19
 350:	00000213          	li	tp,0
 354:	00f0009b          	addw	ra,zero,15
 358:	01c09093          	sll	ra,ra,0x1c
 35c:	fff08093          	add	ra,ra,-1
 360:	00f0011b          	addw	sp,zero,15
 364:	01c11113          	sll	sp,sp,0x1c
 368:	00000013          	nop
 36c:	1020f663          	bgeu	ra,sp,478 <fail>
 370:	00120213          	add	tp,tp,1 # 1 <_start+0x1>
 374:	00200293          	li	t0,2
 378:	fc521ee3          	bne	tp,t0,354 <test_19+0x8>

000000000000037c <test_20>:
 37c:	01400193          	li	gp,20
 380:	00000213          	li	tp,0
 384:	00f0009b          	addw	ra,zero,15
 388:	01c09093          	sll	ra,ra,0x1c
 38c:	fff08093          	add	ra,ra,-1
 390:	00f0011b          	addw	sp,zero,15
 394:	01c11113          	sll	sp,sp,0x1c
 398:	00000013          	nop
 39c:	00000013          	nop
 3a0:	0c20fc63          	bgeu	ra,sp,478 <fail>
 3a4:	00120213          	add	tp,tp,1 # 1 <_start+0x1>
 3a8:	00200293          	li	t0,2
 3ac:	fc521ce3          	bne	tp,t0,384 <test_20+0x8>

00000000000003b0 <test_21>:
 3b0:	01500193          	li	gp,21
 3b4:	00000213          	li	tp,0
 3b8:	00f0009b          	addw	ra,zero,15
 3bc:	01c09093          	sll	ra,ra,0x1c
 3c0:	fff08093          	add	ra,ra,-1
 3c4:	00000013          	nop
 3c8:	00f0011b          	addw	sp,zero,15
 3cc:	01c11113          	sll	sp,sp,0x1c
 3d0:	0a20f463          	bgeu	ra,sp,478 <fail>
 3d4:	00120213          	add	tp,tp,1 # 1 <_start+0x1>
 3d8:	00200293          	li	t0,2
 3dc:	fc521ee3          	bne	tp,t0,3b8 <test_21+0x8>

00000000000003e0 <test_22>:
 3e0:	01600193          	li	gp,22
 3e4:	00000213          	li	tp,0
 3e8:	00f0009b          	addw	ra,zero,15
 3ec:	01c09093          	sll	ra,ra,0x1c
 3f0:	fff08093          	add	ra,ra,-1
 3f4:	00000013          	nop
 3f8:	00f0011b          	addw	sp,zero,15
 3fc:	01c11113          	sll	sp,sp,0x1c
 400:	00000013          	nop
 404:	0620fa63          	bgeu	ra,sp,478 <fail>
 408:	00120213          	add	tp,tp,1 # 1 <_start+0x1>
 40c:	00200293          	li	t0,2
 410:	fc521ce3          	bne	tp,t0,3e8 <test_22+0x8>

0000000000000414 <test_23>:
 414:	01700193          	li	gp,23
 418:	00000213          	li	tp,0
 41c:	00f0009b          	addw	ra,zero,15
 420:	01c09093          	sll	ra,ra,0x1c
 424:	fff08093          	add	ra,ra,-1
 428:	00000013          	nop
 42c:	00000013          	nop
 430:	00f0011b          	addw	sp,zero,15
 434:	01c11113          	sll	sp,sp,0x1c
 438:	0420f063          	bgeu	ra,sp,478 <fail>
 43c:	00120213          	add	tp,tp,1 # 1 <_start+0x1>
 440:	00200293          	li	t0,2
 444:	fc521ce3          	bne	tp,t0,41c <test_23+0x8>

0000000000000448 <test_24>:
 448:	01800193          	li	gp,24
 44c:	00100093          	li	ra,1
 450:	0000fa63          	bgeu	ra,zero,464 <test_24+0x1c>
 454:	00108093          	add	ra,ra,1
 458:	00108093          	add	ra,ra,1
 45c:	00108093          	add	ra,ra,1
 460:	00108093          	add	ra,ra,1
 464:	00108093          	add	ra,ra,1
 468:	00108093          	add	ra,ra,1
 46c:	00300393          	li	t2,3
 470:	00709463          	bne	ra,t2,478 <fail>
 474:	02301263          	bne	zero,gp,498 <pass>

0000000000000478 <fail>:
 478:	0ff0000f          	fence
 47c:	00018063          	beqz	gp,47c <fail+0x4>
 480:	00119193          	sll	gp,gp,0x1
 484:	0011e193          	or	gp,gp,1
 488:	10000297          	auipc	t0,0x10000
 48c:	b7828293          	add	t0,t0,-1160 # 10000000 <tohost>
 490:	0032a023          	sw	gp,0(t0)
 494:	0000006f          	j	494 <fail+0x1c>

0000000000000498 <pass>:
 498:	0ff0000f          	fence
 49c:	00100193          	li	gp,1
 4a0:	10000297          	auipc	t0,0x10000
 4a4:	b6028293          	add	t0,t0,-1184 # 10000000 <tohost>
 4a8:	0032a023          	sw	gp,0(t0)
 4ac:	0000006f          	j	4ac <pass+0x14>
 4b0:	c0001073          	unimp
 4b4:	0000                	.2byte	0x0
 4b6:	0000                	.2byte	0x0
 4b8:	0000                	.2byte	0x0
 4ba:	0000                	.2byte	0x0
 4bc:	0000                	.2byte	0x0
 4be:	0000                	.2byte	0x0
 4c0:	0000                	.2byte	0x0
 4c2:	0000                	.2byte	0x0
