
blt.out:     file format elf64-littleriscv


Disassembly of section .text.init:

0000000000000000 <_start>:
   0:	03c0006f          	j	3c <reset_vector>

0000000000000004 <trap_vector>:
   4:	34202f73          	csrr	t5,mcause
   8:	00800f93          	li	t6,8
   c:	03ff0263          	beq	t5,t6,30 <write_tohost>
  10:	00900f93          	li	t6,9
  14:	01ff0e63          	beq	t5,t6,30 <write_tohost>
  18:	00b00f93          	li	t6,11
  1c:	01ff0a63          	beq	t5,t6,30 <write_tohost>
  20:	34202f73          	csrr	t5,mcause
  24:	000f5463          	bgez	t5,2c <handle_exception>
  28:	0040006f          	j	2c <handle_exception>

000000000000002c <handle_exception>:
  2c:	5391e193          	or	gp,gp,1337

0000000000000030 <write_tohost>:
  30:	10000f17          	auipc	t5,0x10000
  34:	fc3f2823          	sw	gp,-48(t5) # 10000000 <tohost>
  38:	0000006f          	j	38 <write_tohost+0x8>

000000000000003c <reset_vector>:
  3c:	b0005073          	csrw	mcycle,0
  40:	b0205073          	csrw	minstret,0
  44:	00000093          	li	ra,0
  48:	00000113          	li	sp,0
  4c:	00000193          	li	gp,0
  50:	00000213          	li	tp,0
  54:	00000293          	li	t0,0
  58:	00000313          	li	t1,0
  5c:	00000393          	li	t2,0
  60:	00000413          	li	s0,0
  64:	00000493          	li	s1,0
  68:	00000513          	li	a0,0
  6c:	00000593          	li	a1,0
  70:	00000613          	li	a2,0
  74:	00000693          	li	a3,0
  78:	00000713          	li	a4,0
  7c:	00000793          	li	a5,0
  80:	00000813          	li	a6,0
  84:	00000893          	li	a7,0
  88:	00000913          	li	s2,0
  8c:	00000993          	li	s3,0
  90:	00000a13          	li	s4,0
  94:	00000a93          	li	s5,0
  98:	00000b13          	li	s6,0
  9c:	00000b93          	li	s7,0
  a0:	00000c13          	li	s8,0
  a4:	00000c93          	li	s9,0
  a8:	00000d13          	li	s10,0
  ac:	00000d93          	li	s11,0
  b0:	00000e13          	li	t3,0
  b4:	00000e93          	li	t4,0
  b8:	00000f13          	li	t5,0
  bc:	00000f93          	li	t6,0
  c0:	00000193          	li	gp,0
  c4:	00000297          	auipc	t0,0x0
  c8:	f4028293          	add	t0,t0,-192 # 4 <trap_vector>
  cc:	30529073          	csrw	mtvec,t0
  d0:	30005073          	csrw	mstatus,0
  d4:	00000297          	auipc	t0,0x0
  d8:	01428293          	add	t0,t0,20 # e8 <test_2>
  dc:	34129073          	csrw	mepc,t0
  e0:	f1402573          	csrr	a0,mhartid
  e4:	30200073          	mret

00000000000000e8 <test_2>:
  e8:	00200193          	li	gp,2
  ec:	00000093          	li	ra,0
  f0:	00100113          	li	sp,1
  f4:	0020c663          	blt	ra,sp,100 <test_2+0x18>
  f8:	2a301863          	bne	zero,gp,3a8 <fail>
  fc:	00301663          	bne	zero,gp,108 <test_3>
 100:	fe20cee3          	blt	ra,sp,fc <test_2+0x14>
 104:	2a301263          	bne	zero,gp,3a8 <fail>

0000000000000108 <test_3>:
 108:	00300193          	li	gp,3
 10c:	fff00093          	li	ra,-1
 110:	00100113          	li	sp,1
 114:	0020c663          	blt	ra,sp,120 <test_3+0x18>
 118:	28301863          	bne	zero,gp,3a8 <fail>
 11c:	00301663          	bne	zero,gp,128 <test_4>
 120:	fe20cee3          	blt	ra,sp,11c <test_3+0x14>
 124:	28301263          	bne	zero,gp,3a8 <fail>

0000000000000128 <test_4>:
 128:	00400193          	li	gp,4
 12c:	ffe00093          	li	ra,-2
 130:	fff00113          	li	sp,-1
 134:	0020c663          	blt	ra,sp,140 <test_4+0x18>
 138:	26301863          	bne	zero,gp,3a8 <fail>
 13c:	00301663          	bne	zero,gp,148 <test_5>
 140:	fe20cee3          	blt	ra,sp,13c <test_4+0x14>
 144:	26301263          	bne	zero,gp,3a8 <fail>

0000000000000148 <test_5>:
 148:	00500193          	li	gp,5
 14c:	00100093          	li	ra,1
 150:	00000113          	li	sp,0
 154:	0020c463          	blt	ra,sp,15c <test_5+0x14>
 158:	00301463          	bne	zero,gp,160 <test_5+0x18>
 15c:	24301663          	bne	zero,gp,3a8 <fail>
 160:	fe20cee3          	blt	ra,sp,15c <test_5+0x14>

0000000000000164 <test_6>:
 164:	00600193          	li	gp,6
 168:	00100093          	li	ra,1
 16c:	fff00113          	li	sp,-1
 170:	0020c463          	blt	ra,sp,178 <test_6+0x14>
 174:	00301463          	bne	zero,gp,17c <test_6+0x18>
 178:	22301863          	bne	zero,gp,3a8 <fail>
 17c:	fe20cee3          	blt	ra,sp,178 <test_6+0x14>

0000000000000180 <test_7>:
 180:	00700193          	li	gp,7
 184:	fff00093          	li	ra,-1
 188:	ffe00113          	li	sp,-2
 18c:	0020c463          	blt	ra,sp,194 <test_7+0x14>
 190:	00301463          	bne	zero,gp,198 <test_7+0x18>
 194:	20301a63          	bne	zero,gp,3a8 <fail>
 198:	fe20cee3          	blt	ra,sp,194 <test_7+0x14>

000000000000019c <test_8>:
 19c:	00800193          	li	gp,8
 1a0:	00100093          	li	ra,1
 1a4:	ffe00113          	li	sp,-2
 1a8:	0020c463          	blt	ra,sp,1b0 <test_8+0x14>
 1ac:	00301463          	bne	zero,gp,1b4 <test_8+0x18>
 1b0:	1e301c63          	bne	zero,gp,3a8 <fail>
 1b4:	fe20cee3          	blt	ra,sp,1b0 <test_8+0x14>

00000000000001b8 <test_9>:
 1b8:	00900193          	li	gp,9
 1bc:	00000213          	li	tp,0
 1c0:	00000093          	li	ra,0
 1c4:	fff00113          	li	sp,-1
 1c8:	1e20c063          	blt	ra,sp,3a8 <fail>
 1cc:	00120213          	add	tp,tp,1 # 1 <_start+0x1>
 1d0:	00200293          	li	t0,2
 1d4:	fe5216e3          	bne	tp,t0,1c0 <test_9+0x8>

00000000000001d8 <test_10>:
 1d8:	00a00193          	li	gp,10
 1dc:	00000213          	li	tp,0
 1e0:	00000093          	li	ra,0
 1e4:	fff00113          	li	sp,-1
 1e8:	00000013          	nop
 1ec:	1a20ce63          	blt	ra,sp,3a8 <fail>
 1f0:	00120213          	add	tp,tp,1 # 1 <_start+0x1>
 1f4:	00200293          	li	t0,2
 1f8:	fe5214e3          	bne	tp,t0,1e0 <test_10+0x8>

00000000000001fc <test_11>:
 1fc:	00b00193          	li	gp,11
 200:	00000213          	li	tp,0
 204:	00000093          	li	ra,0
 208:	fff00113          	li	sp,-1
 20c:	00000013          	nop
 210:	00000013          	nop
 214:	1820ca63          	blt	ra,sp,3a8 <fail>
 218:	00120213          	add	tp,tp,1 # 1 <_start+0x1>
 21c:	00200293          	li	t0,2
 220:	fe5212e3          	bne	tp,t0,204 <test_11+0x8>

0000000000000224 <test_12>:
 224:	00c00193          	li	gp,12
 228:	00000213          	li	tp,0
 22c:	00000093          	li	ra,0
 230:	00000013          	nop
 234:	fff00113          	li	sp,-1
 238:	1620c863          	blt	ra,sp,3a8 <fail>
 23c:	00120213          	add	tp,tp,1 # 1 <_start+0x1>
 240:	00200293          	li	t0,2
 244:	fe5214e3          	bne	tp,t0,22c <test_12+0x8>

0000000000000248 <test_13>:
 248:	00d00193          	li	gp,13
 24c:	00000213          	li	tp,0
 250:	00000093          	li	ra,0
 254:	00000013          	nop
 258:	fff00113          	li	sp,-1
 25c:	00000013          	nop
 260:	1420c463          	blt	ra,sp,3a8 <fail>
 264:	00120213          	add	tp,tp,1 # 1 <_start+0x1>
 268:	00200293          	li	t0,2
 26c:	fe5212e3          	bne	tp,t0,250 <test_13+0x8>

0000000000000270 <test_14>:
 270:	00e00193          	li	gp,14
 274:	00000213          	li	tp,0
 278:	00000093          	li	ra,0
 27c:	00000013          	nop
 280:	00000013          	nop
 284:	fff00113          	li	sp,-1
 288:	1220c063          	blt	ra,sp,3a8 <fail>
 28c:	00120213          	add	tp,tp,1 # 1 <_start+0x1>
 290:	00200293          	li	t0,2
 294:	fe5212e3          	bne	tp,t0,278 <test_14+0x8>

0000000000000298 <test_15>:
 298:	00f00193          	li	gp,15
 29c:	00000213          	li	tp,0
 2a0:	00000093          	li	ra,0
 2a4:	fff00113          	li	sp,-1
 2a8:	1020c063          	blt	ra,sp,3a8 <fail>
 2ac:	00120213          	add	tp,tp,1 # 1 <_start+0x1>
 2b0:	00200293          	li	t0,2
 2b4:	fe5216e3          	bne	tp,t0,2a0 <test_15+0x8>

00000000000002b8 <test_16>:
 2b8:	01000193          	li	gp,16
 2bc:	00000213          	li	tp,0
 2c0:	00000093          	li	ra,0
 2c4:	fff00113          	li	sp,-1
 2c8:	00000013          	nop
 2cc:	0c20ce63          	blt	ra,sp,3a8 <fail>
 2d0:	00120213          	add	tp,tp,1 # 1 <_start+0x1>
 2d4:	00200293          	li	t0,2
 2d8:	fe5214e3          	bne	tp,t0,2c0 <test_16+0x8>

00000000000002dc <test_17>:
 2dc:	01100193          	li	gp,17
 2e0:	00000213          	li	tp,0
 2e4:	00000093          	li	ra,0
 2e8:	fff00113          	li	sp,-1
 2ec:	00000013          	nop
 2f0:	00000013          	nop
 2f4:	0a20ca63          	blt	ra,sp,3a8 <fail>
 2f8:	00120213          	add	tp,tp,1 # 1 <_start+0x1>
 2fc:	00200293          	li	t0,2
 300:	fe5212e3          	bne	tp,t0,2e4 <test_17+0x8>

0000000000000304 <test_18>:
 304:	01200193          	li	gp,18
 308:	00000213          	li	tp,0
 30c:	00000093          	li	ra,0
 310:	00000013          	nop
 314:	fff00113          	li	sp,-1
 318:	0820c863          	blt	ra,sp,3a8 <fail>
 31c:	00120213          	add	tp,tp,1 # 1 <_start+0x1>
 320:	00200293          	li	t0,2
 324:	fe5214e3          	bne	tp,t0,30c <test_18+0x8>

0000000000000328 <test_19>:
 328:	01300193          	li	gp,19
 32c:	00000213          	li	tp,0
 330:	00000093          	li	ra,0
 334:	00000013          	nop
 338:	fff00113          	li	sp,-1
 33c:	00000013          	nop
 340:	0620c463          	blt	ra,sp,3a8 <fail>
 344:	00120213          	add	tp,tp,1 # 1 <_start+0x1>
 348:	00200293          	li	t0,2
 34c:	fe5212e3          	bne	tp,t0,330 <test_19+0x8>

0000000000000350 <test_20>:
 350:	01400193          	li	gp,20
 354:	00000213          	li	tp,0
 358:	00000093          	li	ra,0
 35c:	00000013          	nop
 360:	00000013          	nop
 364:	fff00113          	li	sp,-1
 368:	0420c063          	blt	ra,sp,3a8 <fail>
 36c:	00120213          	add	tp,tp,1 # 1 <_start+0x1>
 370:	00200293          	li	t0,2
 374:	fe5212e3          	bne	tp,t0,358 <test_20+0x8>

0000000000000378 <test_21>:
 378:	01500193          	li	gp,21
 37c:	00100093          	li	ra,1
 380:	00104a63          	bgtz	ra,394 <test_21+0x1c>
 384:	00108093          	add	ra,ra,1
 388:	00108093          	add	ra,ra,1
 38c:	00108093          	add	ra,ra,1
 390:	00108093          	add	ra,ra,1
 394:	00108093          	add	ra,ra,1
 398:	00108093          	add	ra,ra,1
 39c:	00300393          	li	t2,3
 3a0:	00709463          	bne	ra,t2,3a8 <fail>
 3a4:	02301063          	bne	zero,gp,3c4 <pass>

00000000000003a8 <fail>:
 3a8:	0ff0000f          	fence
 3ac:	00018063          	beqz	gp,3ac <fail+0x4>
 3b0:	00119193          	sll	gp,gp,0x1
 3b4:	0011e193          	or	gp,gp,1
 3b8:	05d00893          	li	a7,93
 3bc:	00018513          	mv	a0,gp
 3c0:	00000073          	ecall

00000000000003c4 <pass>:
 3c4:	0ff0000f          	fence
 3c8:	00100193          	li	gp,1
 3cc:	05d00893          	li	a7,93
 3d0:	00000513          	li	a0,0
 3d4:	00000073          	ecall
 3d8:	c0001073          	unimp
 3dc:	0000                	.2byte	0x0
 3de:	0000                	.2byte	0x0
 3e0:	0000                	.2byte	0x0
 3e2:	0000                	.2byte	0x0
 3e4:	0000                	.2byte	0x0
 3e6:	0000                	.2byte	0x0
 3e8:	0000                	.2byte	0x0
 3ea:	0000                	.2byte	0x0
 3ec:	0000                	.2byte	0x0
 3ee:	0000                	.2byte	0x0
 3f0:	0000                	.2byte	0x0
 3f2:	0000                	.2byte	0x0
 3f4:	0000                	.2byte	0x0
 3f6:	0000                	.2byte	0x0
 3f8:	0000                	.2byte	0x0
 3fa:	0000                	.2byte	0x0
 3fc:	0000                	.2byte	0x0
 3fe:	0000                	.2byte	0x0
 400:	0000                	.2byte	0x0
 402:	0000                	.2byte	0x0
