
jalr.out:     file format elf64-littleriscv


Disassembly of section .text.init:

0000000000000000 <_start>:
   0:	03c0006f          	j	3c <reset_vector>

0000000000000004 <trap_vector>:
   4:	34202f73          	csrr	t5,mcause
   8:	00800f93          	li	t6,8
   c:	03ff0263          	beq	t5,t6,30 <write_tohost>
  10:	00900f93          	li	t6,9
  14:	01ff0e63          	beq	t5,t6,30 <write_tohost>
  18:	00b00f93          	li	t6,11
  1c:	01ff0a63          	beq	t5,t6,30 <write_tohost>
  20:	34202f73          	csrr	t5,mcause
  24:	000f5463          	bgez	t5,2c <handle_exception>
  28:	0040006f          	j	2c <handle_exception>

000000000000002c <handle_exception>:
  2c:	5391e193          	or	gp,gp,1337

0000000000000030 <write_tohost>:
  30:	10000f17          	auipc	t5,0x10000
  34:	fc3f2823          	sw	gp,-48(t5) # 10000000 <tohost>
  38:	0000006f          	j	38 <write_tohost+0x8>

000000000000003c <reset_vector>:
  3c:	b0005073          	csrw	mcycle,0
  40:	b0205073          	csrw	minstret,0
  44:	00000093          	li	ra,0
  48:	00000113          	li	sp,0
  4c:	00000193          	li	gp,0
  50:	00000213          	li	tp,0
  54:	00000293          	li	t0,0
  58:	00000313          	li	t1,0
  5c:	00000393          	li	t2,0
  60:	00000413          	li	s0,0
  64:	00000493          	li	s1,0
  68:	00000513          	li	a0,0
  6c:	00000593          	li	a1,0
  70:	00000613          	li	a2,0
  74:	00000693          	li	a3,0
  78:	00000713          	li	a4,0
  7c:	00000793          	li	a5,0
  80:	00000813          	li	a6,0
  84:	00000893          	li	a7,0
  88:	00000913          	li	s2,0
  8c:	00000993          	li	s3,0
  90:	00000a13          	li	s4,0
  94:	00000a93          	li	s5,0
  98:	00000b13          	li	s6,0
  9c:	00000b93          	li	s7,0
  a0:	00000c13          	li	s8,0
  a4:	00000c93          	li	s9,0
  a8:	00000d13          	li	s10,0
  ac:	00000d93          	li	s11,0
  b0:	00000e13          	li	t3,0
  b4:	00000e93          	li	t4,0
  b8:	00000f13          	li	t5,0
  bc:	00000f93          	li	t6,0
  c0:	00000193          	li	gp,0
  c4:	00000297          	auipc	t0,0x0
  c8:	f4028293          	add	t0,t0,-192 # 4 <trap_vector>
  cc:	30529073          	csrw	mtvec,t0
  d0:	30005073          	csrw	mstatus,0
  d4:	00000297          	auipc	t0,0x0
  d8:	01428293          	add	t0,t0,20 # e8 <test_2>
  dc:	34129073          	csrw	mepc,t0
  e0:	f1402573          	csrr	a0,mhartid
  e4:	30200073          	mret

00000000000000e8 <test_2>:
  e8:	00200193          	li	gp,2
  ec:	00000293          	li	t0,0
  f0:	00000317          	auipc	t1,0x0
  f4:	01030313          	add	t1,t1,16 # 100 <target_2>
  f8:	000302e7          	jalr	t0,t1

00000000000000fc <linkaddr_2>:
  fc:	0e00006f          	j	1dc <fail>

0000000000000100 <target_2>:
 100:	00000317          	auipc	t1,0x0
 104:	ffc30313          	add	t1,t1,-4 # fc <linkaddr_2>
 108:	0c629a63          	bne	t0,t1,1dc <fail>

000000000000010c <test_3>:
 10c:	00300193          	li	gp,3
 110:	00000297          	auipc	t0,0x0
 114:	01028293          	add	t0,t0,16 # 120 <target_3>
 118:	000282e7          	jalr	t0,t0

000000000000011c <linkaddr_3>:
 11c:	0c00006f          	j	1dc <fail>

0000000000000120 <target_3>:
 120:	00000317          	auipc	t1,0x0
 124:	ffc30313          	add	t1,t1,-4 # 11c <linkaddr_3>
 128:	0a629a63          	bne	t0,t1,1dc <fail>

000000000000012c <test_4>:
 12c:	00400193          	li	gp,4
 130:	00000213          	li	tp,0
 134:	00000317          	auipc	t1,0x0
 138:	01030313          	add	t1,t1,16 # 144 <test_4+0x18>
 13c:	000306e7          	jalr	a3,t1
 140:	08301e63          	bne	zero,gp,1dc <fail>
 144:	00120213          	add	tp,tp,1 # 1 <_start+0x1>
 148:	00200293          	li	t0,2
 14c:	fe5214e3          	bne	tp,t0,134 <test_4+0x8>

0000000000000150 <test_5>:
 150:	00500193          	li	gp,5
 154:	00000213          	li	tp,0
 158:	00000317          	auipc	t1,0x0
 15c:	01430313          	add	t1,t1,20 # 16c <test_5+0x1c>
 160:	00000013          	nop
 164:	000306e7          	jalr	a3,t1
 168:	06301a63          	bne	zero,gp,1dc <fail>
 16c:	00120213          	add	tp,tp,1 # 1 <_start+0x1>
 170:	00200293          	li	t0,2
 174:	fe5212e3          	bne	tp,t0,158 <test_5+0x8>

0000000000000178 <test_6>:
 178:	00600193          	li	gp,6
 17c:	00000213          	li	tp,0
 180:	00000317          	auipc	t1,0x0
 184:	01830313          	add	t1,t1,24 # 198 <test_6+0x20>
 188:	00000013          	nop
 18c:	00000013          	nop
 190:	000306e7          	jalr	a3,t1
 194:	04301463          	bne	zero,gp,1dc <fail>
 198:	00120213          	add	tp,tp,1 # 1 <_start+0x1>
 19c:	00200293          	li	t0,2
 1a0:	fe5210e3          	bne	tp,t0,180 <test_6+0x8>

00000000000001a4 <test_7>:
 1a4:	00700193          	li	gp,7
 1a8:	00100293          	li	t0,1
 1ac:	00000317          	auipc	t1,0x0
 1b0:	01c30313          	add	t1,t1,28 # 1c8 <test_7+0x24>
 1b4:	ffc30067          	jr	-4(t1)
 1b8:	00128293          	add	t0,t0,1
 1bc:	00128293          	add	t0,t0,1
 1c0:	00128293          	add	t0,t0,1
 1c4:	00128293          	add	t0,t0,1
 1c8:	00128293          	add	t0,t0,1
 1cc:	00128293          	add	t0,t0,1
 1d0:	00400393          	li	t2,4
 1d4:	00729463          	bne	t0,t2,1dc <fail>
 1d8:	02301063          	bne	zero,gp,1f8 <pass>

00000000000001dc <fail>:
 1dc:	0ff0000f          	fence
 1e0:	00018063          	beqz	gp,1e0 <fail+0x4>
 1e4:	00119193          	sll	gp,gp,0x1
 1e8:	0011e193          	or	gp,gp,1
 1ec:	05d00893          	li	a7,93
 1f0:	00018513          	mv	a0,gp
 1f4:	00000073          	ecall

00000000000001f8 <pass>:
 1f8:	0ff0000f          	fence
 1fc:	00100193          	li	gp,1
 200:	05d00893          	li	a7,93
 204:	00000513          	li	a0,0
 208:	00000073          	ecall
 20c:	c0001073          	unimp
 210:	0000                	.2byte	0x0
 212:	0000                	.2byte	0x0
 214:	0000                	.2byte	0x0
 216:	0000                	.2byte	0x0
 218:	0000                	.2byte	0x0
 21a:	0000                	.2byte	0x0
 21c:	0000                	.2byte	0x0
 21e:	0000                	.2byte	0x0
 220:	0000                	.2byte	0x0
 222:	0000                	.2byte	0x0
 224:	0000                	.2byte	0x0
 226:	0000                	.2byte	0x0
 228:	0000                	.2byte	0x0
 22a:	0000                	.2byte	0x0
 22c:	0000                	.2byte	0x0
 22e:	0000                	.2byte	0x0
 230:	0000                	.2byte	0x0
 232:	0000                	.2byte	0x0
 234:	0000                	.2byte	0x0
 236:	0000                	.2byte	0x0
 238:	0000                	.2byte	0x0
 23a:	0000                	.2byte	0x0
 23c:	0000                	.2byte	0x0
 23e:	0000                	.2byte	0x0
 240:	0000                	.2byte	0x0
 242:	0000                	.2byte	0x0
