
lb.out:     file format elf64-littleriscv


Disassembly of section .text.init:

0000000000000000 <_start>:
   0:	03c0006f          	j	3c <reset_vector>

0000000000000004 <trap_vector>:
   4:	34202f73          	csrr	t5,mcause
   8:	00800f93          	li	t6,8
   c:	03ff0263          	beq	t5,t6,30 <write_tohost>
  10:	00900f93          	li	t6,9
  14:	01ff0e63          	beq	t5,t6,30 <write_tohost>
  18:	00b00f93          	li	t6,11
  1c:	01ff0a63          	beq	t5,t6,30 <write_tohost>
  20:	34202f73          	csrr	t5,mcause
  24:	000f5463          	bgez	t5,2c <handle_exception>
  28:	0040006f          	j	2c <handle_exception>

000000000000002c <handle_exception>:
  2c:	5391e193          	or	gp,gp,1337

0000000000000030 <write_tohost>:
  30:	10000f17          	auipc	t5,0x10000
  34:	fc3f2823          	sw	gp,-48(t5) # 10000000 <tohost>
  38:	0000006f          	j	38 <write_tohost+0x8>

000000000000003c <reset_vector>:
  3c:	b0005073          	csrw	mcycle,0
  40:	b0205073          	csrw	minstret,0
  44:	00000093          	li	ra,0
  48:	00000113          	li	sp,0
  4c:	00000193          	li	gp,0
  50:	00000213          	li	tp,0
  54:	00000293          	li	t0,0
  58:	00000313          	li	t1,0
  5c:	00000393          	li	t2,0
  60:	00000413          	li	s0,0
  64:	00000493          	li	s1,0
  68:	00000513          	li	a0,0
  6c:	00000593          	li	a1,0
  70:	00000613          	li	a2,0
  74:	00000693          	li	a3,0
  78:	00000713          	li	a4,0
  7c:	00000793          	li	a5,0
  80:	00000813          	li	a6,0
  84:	00000893          	li	a7,0
  88:	00000913          	li	s2,0
  8c:	00000993          	li	s3,0
  90:	00000a13          	li	s4,0
  94:	00000a93          	li	s5,0
  98:	00000b13          	li	s6,0
  9c:	00000b93          	li	s7,0
  a0:	00000c13          	li	s8,0
  a4:	00000c93          	li	s9,0
  a8:	00000d13          	li	s10,0
  ac:	00000d93          	li	s11,0
  b0:	00000e13          	li	t3,0
  b4:	00000e93          	li	t4,0
  b8:	00000f13          	li	t5,0
  bc:	00000f93          	li	t6,0
  c0:	00000193          	li	gp,0
  c4:	00000297          	auipc	t0,0x0
  c8:	f4028293          	add	t0,t0,-192 # 4 <trap_vector>
  cc:	30529073          	csrw	mtvec,t0
  d0:	30005073          	csrw	mstatus,0
  d4:	00000297          	auipc	t0,0x0
  d8:	01428293          	add	t0,t0,20 # e8 <test_2>
  dc:	34129073          	csrw	mepc,t0
  e0:	f1402573          	csrr	a0,mhartid
  e4:	30200073          	mret

00000000000000e8 <test_2>:
  e8:	00200193          	li	gp,2
  ec:	fff00793          	li	a5,-1
  f0:	00004097          	auipc	ra,0x4
  f4:	f1008093          	add	ra,ra,-240 # 4000 <begin_signature>
  f8:	00008703          	lb	a4,0(ra)
  fc:	fff00393          	li	t2,-1
 100:	24771a63          	bne	a4,t2,354 <fail>

0000000000000104 <test_3>:
 104:	00300193          	li	gp,3
 108:	00000793          	li	a5,0
 10c:	00004097          	auipc	ra,0x4
 110:	ef408093          	add	ra,ra,-268 # 4000 <begin_signature>
 114:	00108703          	lb	a4,1(ra)
 118:	00000393          	li	t2,0
 11c:	22771c63          	bne	a4,t2,354 <fail>

0000000000000120 <test_4>:
 120:	00400193          	li	gp,4
 124:	ff000793          	li	a5,-16
 128:	00004097          	auipc	ra,0x4
 12c:	ed808093          	add	ra,ra,-296 # 4000 <begin_signature>
 130:	00208703          	lb	a4,2(ra)
 134:	ff000393          	li	t2,-16
 138:	20771e63          	bne	a4,t2,354 <fail>

000000000000013c <test_5>:
 13c:	00500193          	li	gp,5
 140:	00f00793          	li	a5,15
 144:	00004097          	auipc	ra,0x4
 148:	ebc08093          	add	ra,ra,-324 # 4000 <begin_signature>
 14c:	00308703          	lb	a4,3(ra)
 150:	00f00393          	li	t2,15
 154:	20771063          	bne	a4,t2,354 <fail>

0000000000000158 <test_6>:
 158:	00600193          	li	gp,6
 15c:	fff00793          	li	a5,-1
 160:	00004097          	auipc	ra,0x4
 164:	ea308093          	add	ra,ra,-349 # 4003 <tdat4>
 168:	ffd08703          	lb	a4,-3(ra)
 16c:	fff00393          	li	t2,-1
 170:	1e771263          	bne	a4,t2,354 <fail>

0000000000000174 <test_7>:
 174:	00700193          	li	gp,7
 178:	00000793          	li	a5,0
 17c:	00004097          	auipc	ra,0x4
 180:	e8708093          	add	ra,ra,-377 # 4003 <tdat4>
 184:	ffe08703          	lb	a4,-2(ra)
 188:	00000393          	li	t2,0
 18c:	1c771463          	bne	a4,t2,354 <fail>

0000000000000190 <test_8>:
 190:	00800193          	li	gp,8
 194:	ff000793          	li	a5,-16
 198:	00004097          	auipc	ra,0x4
 19c:	e6b08093          	add	ra,ra,-405 # 4003 <tdat4>
 1a0:	fff08703          	lb	a4,-1(ra)
 1a4:	ff000393          	li	t2,-16
 1a8:	1a771663          	bne	a4,t2,354 <fail>

00000000000001ac <test_9>:
 1ac:	00900193          	li	gp,9
 1b0:	00f00793          	li	a5,15
 1b4:	00004097          	auipc	ra,0x4
 1b8:	e4f08093          	add	ra,ra,-433 # 4003 <tdat4>
 1bc:	00008703          	lb	a4,0(ra)
 1c0:	00f00393          	li	t2,15
 1c4:	18771863          	bne	a4,t2,354 <fail>

00000000000001c8 <test_10>:
 1c8:	00a00193          	li	gp,10
 1cc:	00004097          	auipc	ra,0x4
 1d0:	e3408093          	add	ra,ra,-460 # 4000 <begin_signature>
 1d4:	fe008093          	add	ra,ra,-32
 1d8:	02008283          	lb	t0,32(ra)
 1dc:	fff00393          	li	t2,-1
 1e0:	16729a63          	bne	t0,t2,354 <fail>

00000000000001e4 <test_11>:
 1e4:	00b00193          	li	gp,11
 1e8:	00004097          	auipc	ra,0x4
 1ec:	e1808093          	add	ra,ra,-488 # 4000 <begin_signature>
 1f0:	ffa08093          	add	ra,ra,-6
 1f4:	00708283          	lb	t0,7(ra)
 1f8:	00000393          	li	t2,0
 1fc:	14729c63          	bne	t0,t2,354 <fail>

0000000000000200 <test_12>:
 200:	00c00193          	li	gp,12
 204:	00000213          	li	tp,0
 208:	00004097          	auipc	ra,0x4
 20c:	df908093          	add	ra,ra,-519 # 4001 <tdat2>
 210:	00108703          	lb	a4,1(ra)
 214:	00070313          	mv	t1,a4
 218:	ff000393          	li	t2,-16
 21c:	12731c63          	bne	t1,t2,354 <fail>
 220:	00120213          	add	tp,tp,1 # 1 <_start+0x1>
 224:	00200293          	li	t0,2
 228:	fe5210e3          	bne	tp,t0,208 <test_12+0x8>

000000000000022c <test_13>:
 22c:	00d00193          	li	gp,13
 230:	00000213          	li	tp,0
 234:	00004097          	auipc	ra,0x4
 238:	dce08093          	add	ra,ra,-562 # 4002 <tdat3>
 23c:	00108703          	lb	a4,1(ra)
 240:	00000013          	nop
 244:	00070313          	mv	t1,a4
 248:	00f00393          	li	t2,15
 24c:	10731463          	bne	t1,t2,354 <fail>
 250:	00120213          	add	tp,tp,1 # 1 <_start+0x1>
 254:	00200293          	li	t0,2
 258:	fc521ee3          	bne	tp,t0,234 <test_13+0x8>

000000000000025c <test_14>:
 25c:	00e00193          	li	gp,14
 260:	00000213          	li	tp,0
 264:	00004097          	auipc	ra,0x4
 268:	d9c08093          	add	ra,ra,-612 # 4000 <begin_signature>
 26c:	00108703          	lb	a4,1(ra)
 270:	00000013          	nop
 274:	00000013          	nop
 278:	00070313          	mv	t1,a4
 27c:	00000393          	li	t2,0
 280:	0c731a63          	bne	t1,t2,354 <fail>
 284:	00120213          	add	tp,tp,1 # 1 <_start+0x1>
 288:	00200293          	li	t0,2
 28c:	fc521ce3          	bne	tp,t0,264 <test_14+0x8>

0000000000000290 <test_15>:
 290:	00f00193          	li	gp,15
 294:	00000213          	li	tp,0
 298:	00004097          	auipc	ra,0x4
 29c:	d6908093          	add	ra,ra,-663 # 4001 <tdat2>
 2a0:	00108703          	lb	a4,1(ra)
 2a4:	ff000393          	li	t2,-16
 2a8:	0a771663          	bne	a4,t2,354 <fail>
 2ac:	00120213          	add	tp,tp,1 # 1 <_start+0x1>
 2b0:	00200293          	li	t0,2
 2b4:	fe5212e3          	bne	tp,t0,298 <test_15+0x8>

00000000000002b8 <test_16>:
 2b8:	01000193          	li	gp,16
 2bc:	00000213          	li	tp,0
 2c0:	00004097          	auipc	ra,0x4
 2c4:	d4208093          	add	ra,ra,-702 # 4002 <tdat3>
 2c8:	00000013          	nop
 2cc:	00108703          	lb	a4,1(ra)
 2d0:	00f00393          	li	t2,15
 2d4:	08771063          	bne	a4,t2,354 <fail>
 2d8:	00120213          	add	tp,tp,1 # 1 <_start+0x1>
 2dc:	00200293          	li	t0,2
 2e0:	fe5210e3          	bne	tp,t0,2c0 <test_16+0x8>

00000000000002e4 <test_17>:
 2e4:	01100193          	li	gp,17
 2e8:	00000213          	li	tp,0
 2ec:	00004097          	auipc	ra,0x4
 2f0:	d1408093          	add	ra,ra,-748 # 4000 <begin_signature>
 2f4:	00000013          	nop
 2f8:	00000013          	nop
 2fc:	00108703          	lb	a4,1(ra)
 300:	00000393          	li	t2,0
 304:	04771863          	bne	a4,t2,354 <fail>
 308:	00120213          	add	tp,tp,1 # 1 <_start+0x1>
 30c:	00200293          	li	t0,2
 310:	fc521ee3          	bne	tp,t0,2ec <test_17+0x8>

0000000000000314 <test_18>:
 314:	01200193          	li	gp,18
 318:	00004297          	auipc	t0,0x4
 31c:	ce828293          	add	t0,t0,-792 # 4000 <begin_signature>
 320:	00028103          	lb	sp,0(t0)
 324:	00200113          	li	sp,2
 328:	00200393          	li	t2,2
 32c:	02711463          	bne	sp,t2,354 <fail>

0000000000000330 <test_19>:
 330:	01300193          	li	gp,19
 334:	00004297          	auipc	t0,0x4
 338:	ccc28293          	add	t0,t0,-820 # 4000 <begin_signature>
 33c:	00028103          	lb	sp,0(t0)
 340:	00000013          	nop
 344:	00200113          	li	sp,2
 348:	00200393          	li	t2,2
 34c:	00711463          	bne	sp,t2,354 <fail>
 350:	02301063          	bne	zero,gp,370 <pass>

0000000000000354 <fail>:
 354:	0ff0000f          	fence
 358:	00018063          	beqz	gp,358 <fail+0x4>
 35c:	00119193          	sll	gp,gp,0x1
 360:	0011e193          	or	gp,gp,1
 364:	05d00893          	li	a7,93
 368:	00018513          	mv	a0,gp
 36c:	00000073          	ecall

0000000000000370 <pass>:
 370:	0ff0000f          	fence
 374:	00100193          	li	gp,1
 378:	05d00893          	li	a7,93
 37c:	00000513          	li	a0,0
 380:	00000073          	ecall
 384:	c0001073          	unimp
 388:	0000                	.2byte	0x0
 38a:	0000                	.2byte	0x0
 38c:	0000                	.2byte	0x0
 38e:	0000                	.2byte	0x0
 390:	0000                	.2byte	0x0
 392:	0000                	.2byte	0x0
 394:	0000                	.2byte	0x0
 396:	0000                	.2byte	0x0
 398:	0000                	.2byte	0x0
 39a:	0000                	.2byte	0x0
 39c:	0000                	.2byte	0x0
 39e:	0000                	.2byte	0x0
 3a0:	0000                	.2byte	0x0
 3a2:	0000                	.2byte	0x0
 3a4:	0000                	.2byte	0x0
 3a6:	0000                	.2byte	0x0
 3a8:	0000                	.2byte	0x0
 3aa:	0000                	.2byte	0x0
 3ac:	0000                	.2byte	0x0
 3ae:	0000                	.2byte	0x0
 3b0:	0000                	.2byte	0x0
 3b2:	0000                	.2byte	0x0
 3b4:	0000                	.2byte	0x0
 3b6:	0000                	.2byte	0x0
 3b8:	0000                	.2byte	0x0
 3ba:	0000                	.2byte	0x0
 3bc:	0000                	.2byte	0x0
 3be:	0000                	.2byte	0x0
 3c0:	0000                	.2byte	0x0
 3c2:	0000                	.2byte	0x0
