
ld.out:     file format elf64-littleriscv


Disassembly of section .text.init:

0000000000000000 <_start>:
   0:	03c0006f          	j	3c <reset_vector>

0000000000000004 <trap_vector>:
   4:	34202f73          	csrr	t5,mcause
   8:	00800f93          	li	t6,8
   c:	03ff0263          	beq	t5,t6,30 <write_tohost>
  10:	00900f93          	li	t6,9
  14:	01ff0e63          	beq	t5,t6,30 <write_tohost>
  18:	00b00f93          	li	t6,11
  1c:	01ff0a63          	beq	t5,t6,30 <write_tohost>
  20:	34202f73          	csrr	t5,mcause
  24:	000f5463          	bgez	t5,2c <handle_exception>
  28:	0040006f          	j	2c <handle_exception>

000000000000002c <handle_exception>:
  2c:	5391e193          	or	gp,gp,1337

0000000000000030 <write_tohost>:
  30:	10000f17          	auipc	t5,0x10000
  34:	fc3f2823          	sw	gp,-48(t5) # 10000000 <tohost>
  38:	0000006f          	j	38 <write_tohost+0x8>

000000000000003c <reset_vector>:
  3c:	b0005073          	csrw	mcycle,0
  40:	b0205073          	csrw	minstret,0
  44:	00000093          	li	ra,0
  48:	00000113          	li	sp,0
  4c:	00000193          	li	gp,0
  50:	00000213          	li	tp,0
  54:	00000293          	li	t0,0
  58:	00000313          	li	t1,0
  5c:	00000393          	li	t2,0
  60:	00000413          	li	s0,0
  64:	00000493          	li	s1,0
  68:	00000513          	li	a0,0
  6c:	00000593          	li	a1,0
  70:	00000613          	li	a2,0
  74:	00000693          	li	a3,0
  78:	00000713          	li	a4,0
  7c:	00000793          	li	a5,0
  80:	00000813          	li	a6,0
  84:	00000893          	li	a7,0
  88:	00000913          	li	s2,0
  8c:	00000993          	li	s3,0
  90:	00000a13          	li	s4,0
  94:	00000a93          	li	s5,0
  98:	00000b13          	li	s6,0
  9c:	00000b93          	li	s7,0
  a0:	00000c13          	li	s8,0
  a4:	00000c93          	li	s9,0
  a8:	00000d13          	li	s10,0
  ac:	00000d93          	li	s11,0
  b0:	00000e13          	li	t3,0
  b4:	00000e93          	li	t4,0
  b8:	00000f13          	li	t5,0
  bc:	00000f93          	li	t6,0
  c0:	00000193          	li	gp,0
  c4:	00000297          	auipc	t0,0x0
  c8:	f4028293          	add	t0,t0,-192 # 4 <trap_vector>
  cc:	30529073          	csrw	mtvec,t0
  d0:	30005073          	csrw	mstatus,0
  d4:	00000297          	auipc	t0,0x0
  d8:	01428293          	add	t0,t0,20 # e8 <test_2>
  dc:	34129073          	csrw	mepc,t0
  e0:	f1402573          	csrr	a0,mhartid
  e4:	30200073          	mret

00000000000000e8 <test_2>:
  e8:	00200193          	li	gp,2
  ec:	00ff07b7          	lui	a5,0xff0
  f0:	0ff7879b          	addw	a5,a5,255 # ff00ff <end_signature+0xfec0df>
  f4:	01079793          	sll	a5,a5,0x10
  f8:	0ff78793          	add	a5,a5,255
  fc:	01079793          	sll	a5,a5,0x10
 100:	0ff78793          	add	a5,a5,255
 104:	00004097          	auipc	ra,0x4
 108:	efc08093          	add	ra,ra,-260 # 4000 <begin_signature>
 10c:	0000b703          	ld	a4,0(ra)
 110:	00ff03b7          	lui	t2,0xff0
 114:	0ff3839b          	addw	t2,t2,255 # ff00ff <end_signature+0xfec0df>
 118:	01039393          	sll	t2,t2,0x10
 11c:	0ff38393          	add	t2,t2,255
 120:	01039393          	sll	t2,t2,0x10
 124:	0ff38393          	add	t2,t2,255
 128:	46771663          	bne	a4,t2,594 <fail>

000000000000012c <test_3>:
 12c:	00300193          	li	gp,3
 130:	ff0107b7          	lui	a5,0xff010
 134:	f017879b          	addw	a5,a5,-255 # ffffffffff00ff01 <_end+0xffffffffef00feb9>
 138:	01079793          	sll	a5,a5,0x10
 13c:	f0178793          	add	a5,a5,-255
 140:	01079793          	sll	a5,a5,0x10
 144:	f0078793          	add	a5,a5,-256
 148:	00004097          	auipc	ra,0x4
 14c:	eb808093          	add	ra,ra,-328 # 4000 <begin_signature>
 150:	0080b703          	ld	a4,8(ra)
 154:	ff0103b7          	lui	t2,0xff010
 158:	f013839b          	addw	t2,t2,-255 # ffffffffff00ff01 <_end+0xffffffffef00feb9>
 15c:	01039393          	sll	t2,t2,0x10
 160:	f0138393          	add	t2,t2,-255
 164:	01039393          	sll	t2,t2,0x10
 168:	f0038393          	add	t2,t2,-256
 16c:	42771463          	bne	a4,t2,594 <fail>

0000000000000170 <test_4>:
 170:	00400193          	li	gp,4
 174:	000107b7          	lui	a5,0x10
 178:	f017879b          	addw	a5,a5,-255 # ff01 <end_signature+0xbee1>
 17c:	01079793          	sll	a5,a5,0x10
 180:	f0178793          	add	a5,a5,-255
 184:	01079793          	sll	a5,a5,0x10
 188:	f0178793          	add	a5,a5,-255
 18c:	00c79793          	sll	a5,a5,0xc
 190:	ff078793          	add	a5,a5,-16
 194:	00004097          	auipc	ra,0x4
 198:	e6c08093          	add	ra,ra,-404 # 4000 <begin_signature>
 19c:	0100b703          	ld	a4,16(ra)
 1a0:	000103b7          	lui	t2,0x10
 1a4:	f013839b          	addw	t2,t2,-255 # ff01 <end_signature+0xbee1>
 1a8:	01039393          	sll	t2,t2,0x10
 1ac:	f0138393          	add	t2,t2,-255
 1b0:	01039393          	sll	t2,t2,0x10
 1b4:	f0138393          	add	t2,t2,-255
 1b8:	00c39393          	sll	t2,t2,0xc
 1bc:	ff038393          	add	t2,t2,-16
 1c0:	3c771a63          	bne	a4,t2,594 <fail>

00000000000001c4 <test_5>:
 1c4:	00500193          	li	gp,5
 1c8:	ffff07b7          	lui	a5,0xffff0
 1cc:	0ff7879b          	addw	a5,a5,255 # ffffffffffff00ff <_end+0xffffffffefff00b7>
 1d0:	01079793          	sll	a5,a5,0x10
 1d4:	0ff78793          	add	a5,a5,255
 1d8:	01079793          	sll	a5,a5,0x10
 1dc:	0ff78793          	add	a5,a5,255
 1e0:	00c79793          	sll	a5,a5,0xc
 1e4:	00f78793          	add	a5,a5,15
 1e8:	00004097          	auipc	ra,0x4
 1ec:	e1808093          	add	ra,ra,-488 # 4000 <begin_signature>
 1f0:	0180b703          	ld	a4,24(ra)
 1f4:	ffff03b7          	lui	t2,0xffff0
 1f8:	0ff3839b          	addw	t2,t2,255 # ffffffffffff00ff <_end+0xffffffffefff00b7>
 1fc:	01039393          	sll	t2,t2,0x10
 200:	0ff38393          	add	t2,t2,255
 204:	01039393          	sll	t2,t2,0x10
 208:	0ff38393          	add	t2,t2,255
 20c:	00c39393          	sll	t2,t2,0xc
 210:	00f38393          	add	t2,t2,15
 214:	38771063          	bne	a4,t2,594 <fail>

0000000000000218 <test_6>:
 218:	00600193          	li	gp,6
 21c:	00ff07b7          	lui	a5,0xff0
 220:	0ff7879b          	addw	a5,a5,255 # ff00ff <end_signature+0xfec0df>
 224:	01079793          	sll	a5,a5,0x10
 228:	0ff78793          	add	a5,a5,255
 22c:	01079793          	sll	a5,a5,0x10
 230:	0ff78793          	add	a5,a5,255
 234:	00004097          	auipc	ra,0x4
 238:	de408093          	add	ra,ra,-540 # 4018 <tdat4>
 23c:	fe80b703          	ld	a4,-24(ra)
 240:	00ff03b7          	lui	t2,0xff0
 244:	0ff3839b          	addw	t2,t2,255 # ff00ff <end_signature+0xfec0df>
 248:	01039393          	sll	t2,t2,0x10
 24c:	0ff38393          	add	t2,t2,255
 250:	01039393          	sll	t2,t2,0x10
 254:	0ff38393          	add	t2,t2,255
 258:	32771e63          	bne	a4,t2,594 <fail>

000000000000025c <test_7>:
 25c:	00700193          	li	gp,7
 260:	ff0107b7          	lui	a5,0xff010
 264:	f017879b          	addw	a5,a5,-255 # ffffffffff00ff01 <_end+0xffffffffef00feb9>
 268:	01079793          	sll	a5,a5,0x10
 26c:	f0178793          	add	a5,a5,-255
 270:	01079793          	sll	a5,a5,0x10
 274:	f0078793          	add	a5,a5,-256
 278:	00004097          	auipc	ra,0x4
 27c:	da008093          	add	ra,ra,-608 # 4018 <tdat4>
 280:	ff00b703          	ld	a4,-16(ra)
 284:	ff0103b7          	lui	t2,0xff010
 288:	f013839b          	addw	t2,t2,-255 # ffffffffff00ff01 <_end+0xffffffffef00feb9>
 28c:	01039393          	sll	t2,t2,0x10
 290:	f0138393          	add	t2,t2,-255
 294:	01039393          	sll	t2,t2,0x10
 298:	f0038393          	add	t2,t2,-256
 29c:	2e771c63          	bne	a4,t2,594 <fail>

00000000000002a0 <test_8>:
 2a0:	00800193          	li	gp,8
 2a4:	000107b7          	lui	a5,0x10
 2a8:	f017879b          	addw	a5,a5,-255 # ff01 <end_signature+0xbee1>
 2ac:	01079793          	sll	a5,a5,0x10
 2b0:	f0178793          	add	a5,a5,-255
 2b4:	01079793          	sll	a5,a5,0x10
 2b8:	f0178793          	add	a5,a5,-255
 2bc:	00c79793          	sll	a5,a5,0xc
 2c0:	ff078793          	add	a5,a5,-16
 2c4:	00004097          	auipc	ra,0x4
 2c8:	d5408093          	add	ra,ra,-684 # 4018 <tdat4>
 2cc:	ff80b703          	ld	a4,-8(ra)
 2d0:	000103b7          	lui	t2,0x10
 2d4:	f013839b          	addw	t2,t2,-255 # ff01 <end_signature+0xbee1>
 2d8:	01039393          	sll	t2,t2,0x10
 2dc:	f0138393          	add	t2,t2,-255
 2e0:	01039393          	sll	t2,t2,0x10
 2e4:	f0138393          	add	t2,t2,-255
 2e8:	00c39393          	sll	t2,t2,0xc
 2ec:	ff038393          	add	t2,t2,-16
 2f0:	2a771263          	bne	a4,t2,594 <fail>

00000000000002f4 <test_9>:
 2f4:	00900193          	li	gp,9
 2f8:	ffff07b7          	lui	a5,0xffff0
 2fc:	0ff7879b          	addw	a5,a5,255 # ffffffffffff00ff <_end+0xffffffffefff00b7>
 300:	01079793          	sll	a5,a5,0x10
 304:	0ff78793          	add	a5,a5,255
 308:	01079793          	sll	a5,a5,0x10
 30c:	0ff78793          	add	a5,a5,255
 310:	00c79793          	sll	a5,a5,0xc
 314:	00f78793          	add	a5,a5,15
 318:	00004097          	auipc	ra,0x4
 31c:	d0008093          	add	ra,ra,-768 # 4018 <tdat4>
 320:	0000b703          	ld	a4,0(ra)
 324:	ffff03b7          	lui	t2,0xffff0
 328:	0ff3839b          	addw	t2,t2,255 # ffffffffffff00ff <_end+0xffffffffefff00b7>
 32c:	01039393          	sll	t2,t2,0x10
 330:	0ff38393          	add	t2,t2,255
 334:	01039393          	sll	t2,t2,0x10
 338:	0ff38393          	add	t2,t2,255
 33c:	00c39393          	sll	t2,t2,0xc
 340:	00f38393          	add	t2,t2,15
 344:	24771863          	bne	a4,t2,594 <fail>

0000000000000348 <test_10>:
 348:	00a00193          	li	gp,10
 34c:	00004097          	auipc	ra,0x4
 350:	cb408093          	add	ra,ra,-844 # 4000 <begin_signature>
 354:	fe008093          	add	ra,ra,-32
 358:	0200b283          	ld	t0,32(ra)
 35c:	00ff03b7          	lui	t2,0xff0
 360:	0ff3839b          	addw	t2,t2,255 # ff00ff <end_signature+0xfec0df>
 364:	01039393          	sll	t2,t2,0x10
 368:	0ff38393          	add	t2,t2,255
 36c:	01039393          	sll	t2,t2,0x10
 370:	0ff38393          	add	t2,t2,255
 374:	22729063          	bne	t0,t2,594 <fail>

0000000000000378 <test_11>:
 378:	00b00193          	li	gp,11
 37c:	00004097          	auipc	ra,0x4
 380:	c8408093          	add	ra,ra,-892 # 4000 <begin_signature>
 384:	ffd08093          	add	ra,ra,-3
 388:	00b0b283          	ld	t0,11(ra)
 38c:	ff0103b7          	lui	t2,0xff010
 390:	f013839b          	addw	t2,t2,-255 # ffffffffff00ff01 <_end+0xffffffffef00feb9>
 394:	01039393          	sll	t2,t2,0x10
 398:	f0138393          	add	t2,t2,-255
 39c:	01039393          	sll	t2,t2,0x10
 3a0:	f0038393          	add	t2,t2,-256
 3a4:	1e729863          	bne	t0,t2,594 <fail>

00000000000003a8 <test_12>:
 3a8:	00c00193          	li	gp,12
 3ac:	00000213          	li	tp,0
 3b0:	00004097          	auipc	ra,0x4
 3b4:	c5808093          	add	ra,ra,-936 # 4008 <tdat2>
 3b8:	0080b703          	ld	a4,8(ra)
 3bc:	00070313          	mv	t1,a4
 3c0:	000103b7          	lui	t2,0x10
 3c4:	f013839b          	addw	t2,t2,-255 # ff01 <end_signature+0xbee1>
 3c8:	01039393          	sll	t2,t2,0x10
 3cc:	f0138393          	add	t2,t2,-255
 3d0:	01039393          	sll	t2,t2,0x10
 3d4:	f0138393          	add	t2,t2,-255
 3d8:	00c39393          	sll	t2,t2,0xc
 3dc:	ff038393          	add	t2,t2,-16
 3e0:	1a731a63          	bne	t1,t2,594 <fail>
 3e4:	00120213          	add	tp,tp,1 # 1 <_start+0x1>
 3e8:	00200293          	li	t0,2
 3ec:	fc5212e3          	bne	tp,t0,3b0 <test_12+0x8>

00000000000003f0 <test_13>:
 3f0:	00d00193          	li	gp,13
 3f4:	00000213          	li	tp,0
 3f8:	00004097          	auipc	ra,0x4
 3fc:	c1808093          	add	ra,ra,-1000 # 4010 <tdat3>
 400:	0080b703          	ld	a4,8(ra)
 404:	00000013          	nop
 408:	00070313          	mv	t1,a4
 40c:	ffff03b7          	lui	t2,0xffff0
 410:	0ff3839b          	addw	t2,t2,255 # ffffffffffff00ff <_end+0xffffffffefff00b7>
 414:	01039393          	sll	t2,t2,0x10
 418:	0ff38393          	add	t2,t2,255
 41c:	01039393          	sll	t2,t2,0x10
 420:	0ff38393          	add	t2,t2,255
 424:	00c39393          	sll	t2,t2,0xc
 428:	00f38393          	add	t2,t2,15
 42c:	16731463          	bne	t1,t2,594 <fail>
 430:	00120213          	add	tp,tp,1 # 1 <_start+0x1>
 434:	00200293          	li	t0,2
 438:	fc5210e3          	bne	tp,t0,3f8 <test_13+0x8>

000000000000043c <test_14>:
 43c:	00e00193          	li	gp,14
 440:	00000213          	li	tp,0
 444:	00004097          	auipc	ra,0x4
 448:	bbc08093          	add	ra,ra,-1092 # 4000 <begin_signature>
 44c:	0080b703          	ld	a4,8(ra)
 450:	00000013          	nop
 454:	00000013          	nop
 458:	00070313          	mv	t1,a4
 45c:	ff0103b7          	lui	t2,0xff010
 460:	f013839b          	addw	t2,t2,-255 # ffffffffff00ff01 <_end+0xffffffffef00feb9>
 464:	01039393          	sll	t2,t2,0x10
 468:	f0138393          	add	t2,t2,-255
 46c:	01039393          	sll	t2,t2,0x10
 470:	f0038393          	add	t2,t2,-256
 474:	12731063          	bne	t1,t2,594 <fail>
 478:	00120213          	add	tp,tp,1 # 1 <_start+0x1>
 47c:	00200293          	li	t0,2
 480:	fc5212e3          	bne	tp,t0,444 <test_14+0x8>

0000000000000484 <test_15>:
 484:	00f00193          	li	gp,15
 488:	00000213          	li	tp,0
 48c:	00004097          	auipc	ra,0x4
 490:	b7c08093          	add	ra,ra,-1156 # 4008 <tdat2>
 494:	0080b703          	ld	a4,8(ra)
 498:	000103b7          	lui	t2,0x10
 49c:	f013839b          	addw	t2,t2,-255 # ff01 <end_signature+0xbee1>
 4a0:	01039393          	sll	t2,t2,0x10
 4a4:	f0138393          	add	t2,t2,-255
 4a8:	01039393          	sll	t2,t2,0x10
 4ac:	f0138393          	add	t2,t2,-255
 4b0:	00c39393          	sll	t2,t2,0xc
 4b4:	ff038393          	add	t2,t2,-16
 4b8:	0c771e63          	bne	a4,t2,594 <fail>
 4bc:	00120213          	add	tp,tp,1 # 1 <_start+0x1>
 4c0:	00200293          	li	t0,2
 4c4:	fc5214e3          	bne	tp,t0,48c <test_15+0x8>

00000000000004c8 <test_16>:
 4c8:	01000193          	li	gp,16
 4cc:	00000213          	li	tp,0
 4d0:	00004097          	auipc	ra,0x4
 4d4:	b4008093          	add	ra,ra,-1216 # 4010 <tdat3>
 4d8:	00000013          	nop
 4dc:	0080b703          	ld	a4,8(ra)
 4e0:	ffff03b7          	lui	t2,0xffff0
 4e4:	0ff3839b          	addw	t2,t2,255 # ffffffffffff00ff <_end+0xffffffffefff00b7>
 4e8:	01039393          	sll	t2,t2,0x10
 4ec:	0ff38393          	add	t2,t2,255
 4f0:	01039393          	sll	t2,t2,0x10
 4f4:	0ff38393          	add	t2,t2,255
 4f8:	00c39393          	sll	t2,t2,0xc
 4fc:	00f38393          	add	t2,t2,15
 500:	08771a63          	bne	a4,t2,594 <fail>
 504:	00120213          	add	tp,tp,1 # 1 <_start+0x1>
 508:	00200293          	li	t0,2
 50c:	fc5212e3          	bne	tp,t0,4d0 <test_16+0x8>

0000000000000510 <test_17>:
 510:	01100193          	li	gp,17
 514:	00000213          	li	tp,0
 518:	00004097          	auipc	ra,0x4
 51c:	ae808093          	add	ra,ra,-1304 # 4000 <begin_signature>
 520:	00000013          	nop
 524:	00000013          	nop
 528:	0080b703          	ld	a4,8(ra)
 52c:	ff0103b7          	lui	t2,0xff010
 530:	f013839b          	addw	t2,t2,-255 # ffffffffff00ff01 <_end+0xffffffffef00feb9>
 534:	01039393          	sll	t2,t2,0x10
 538:	f0138393          	add	t2,t2,-255
 53c:	01039393          	sll	t2,t2,0x10
 540:	f0038393          	add	t2,t2,-256
 544:	04771863          	bne	a4,t2,594 <fail>
 548:	00120213          	add	tp,tp,1 # 1 <_start+0x1>
 54c:	00200293          	li	t0,2
 550:	fc5214e3          	bne	tp,t0,518 <test_17+0x8>

0000000000000554 <test_18>:
 554:	01200193          	li	gp,18
 558:	00004297          	auipc	t0,0x4
 55c:	aa828293          	add	t0,t0,-1368 # 4000 <begin_signature>
 560:	0002b103          	ld	sp,0(t0)
 564:	00200113          	li	sp,2
 568:	00200393          	li	t2,2
 56c:	02711463          	bne	sp,t2,594 <fail>

0000000000000570 <test_19>:
 570:	01300193          	li	gp,19
 574:	00004297          	auipc	t0,0x4
 578:	a8c28293          	add	t0,t0,-1396 # 4000 <begin_signature>
 57c:	0002b103          	ld	sp,0(t0)
 580:	00000013          	nop
 584:	00200113          	li	sp,2
 588:	00200393          	li	t2,2
 58c:	00711463          	bne	sp,t2,594 <fail>
 590:	02301063          	bne	zero,gp,5b0 <pass>

0000000000000594 <fail>:
 594:	0ff0000f          	fence
 598:	00018063          	beqz	gp,598 <fail+0x4>
 59c:	00119193          	sll	gp,gp,0x1
 5a0:	0011e193          	or	gp,gp,1
 5a4:	05d00893          	li	a7,93
 5a8:	00018513          	mv	a0,gp
 5ac:	00000073          	ecall

00000000000005b0 <pass>:
 5b0:	0ff0000f          	fence
 5b4:	00100193          	li	gp,1
 5b8:	05d00893          	li	a7,93
 5bc:	00000513          	li	a0,0
 5c0:	00000073          	ecall
 5c4:	c0001073          	unimp
 5c8:	0000                	.2byte	0x0
 5ca:	0000                	.2byte	0x0
 5cc:	0000                	.2byte	0x0
 5ce:	0000                	.2byte	0x0
 5d0:	0000                	.2byte	0x0
 5d2:	0000                	.2byte	0x0
 5d4:	0000                	.2byte	0x0
 5d6:	0000                	.2byte	0x0
 5d8:	0000                	.2byte	0x0
 5da:	0000                	.2byte	0x0
 5dc:	0000                	.2byte	0x0
 5de:	0000                	.2byte	0x0
 5e0:	0000                	.2byte	0x0
 5e2:	0000                	.2byte	0x0
 5e4:	0000                	.2byte	0x0
 5e6:	0000                	.2byte	0x0
 5e8:	0000                	.2byte	0x0
 5ea:	0000                	.2byte	0x0
 5ec:	0000                	.2byte	0x0
 5ee:	0000                	.2byte	0x0
 5f0:	0000                	.2byte	0x0
 5f2:	0000                	.2byte	0x0
 5f4:	0000                	.2byte	0x0
 5f6:	0000                	.2byte	0x0
 5f8:	0000                	.2byte	0x0
 5fa:	0000                	.2byte	0x0
 5fc:	0000                	.2byte	0x0
 5fe:	0000                	.2byte	0x0
 600:	0000                	.2byte	0x0
 602:	0000                	.2byte	0x0
