
lh.out:     file format elf64-littleriscv


Disassembly of section .text.init:

0000000000000000 <_start>:
   0:	03c0006f          	j	3c <reset_vector>

0000000000000004 <trap_vector>:
   4:	34202f73          	csrr	t5,mcause
   8:	00800f93          	li	t6,8
   c:	03ff0263          	beq	t5,t6,30 <write_tohost>
  10:	00900f93          	li	t6,9
  14:	01ff0e63          	beq	t5,t6,30 <write_tohost>
  18:	00b00f93          	li	t6,11
  1c:	01ff0a63          	beq	t5,t6,30 <write_tohost>
  20:	34202f73          	csrr	t5,mcause
  24:	000f5463          	bgez	t5,2c <handle_exception>
  28:	0040006f          	j	2c <handle_exception>

000000000000002c <handle_exception>:
  2c:	5391e193          	or	gp,gp,1337

0000000000000030 <write_tohost>:
  30:	10000f17          	auipc	t5,0x10000
  34:	fc3f2823          	sw	gp,-48(t5) # 10000000 <tohost>
  38:	0000006f          	j	38 <write_tohost+0x8>

000000000000003c <reset_vector>:
  3c:	b0005073          	csrw	mcycle,0
  40:	b0205073          	csrw	minstret,0
  44:	00000093          	li	ra,0
  48:	00000113          	li	sp,0
  4c:	00000193          	li	gp,0
  50:	00000213          	li	tp,0
  54:	00000293          	li	t0,0
  58:	00000313          	li	t1,0
  5c:	00000393          	li	t2,0
  60:	00000413          	li	s0,0
  64:	00000493          	li	s1,0
  68:	00000513          	li	a0,0
  6c:	00000593          	li	a1,0
  70:	00000613          	li	a2,0
  74:	00000693          	li	a3,0
  78:	00000713          	li	a4,0
  7c:	00000793          	li	a5,0
  80:	00000813          	li	a6,0
  84:	00000893          	li	a7,0
  88:	00000913          	li	s2,0
  8c:	00000993          	li	s3,0
  90:	00000a13          	li	s4,0
  94:	00000a93          	li	s5,0
  98:	00000b13          	li	s6,0
  9c:	00000b93          	li	s7,0
  a0:	00000c13          	li	s8,0
  a4:	00000c93          	li	s9,0
  a8:	00000d13          	li	s10,0
  ac:	00000d93          	li	s11,0
  b0:	00000e13          	li	t3,0
  b4:	00000e93          	li	t4,0
  b8:	00000f13          	li	t5,0
  bc:	00000f93          	li	t6,0
  c0:	00000193          	li	gp,0
  c4:	00000297          	auipc	t0,0x0
  c8:	f4028293          	add	t0,t0,-192 # 4 <trap_vector>
  cc:	30529073          	csrw	mtvec,t0
  d0:	30005073          	csrw	mstatus,0
  d4:	00000297          	auipc	t0,0x0
  d8:	01428293          	add	t0,t0,20 # e8 <test_2>
  dc:	34129073          	csrw	mepc,t0
  e0:	f1402573          	csrr	a0,mhartid
  e4:	30200073          	mret

00000000000000e8 <test_2>:
  e8:	00200193          	li	gp,2
  ec:	0ff00793          	li	a5,255
  f0:	00004097          	auipc	ra,0x4
  f4:	f1008093          	add	ra,ra,-240 # 4000 <begin_signature>
  f8:	00009703          	lh	a4,0(ra)
  fc:	0ff00393          	li	t2,255
 100:	28771263          	bne	a4,t2,384 <fail>

0000000000000104 <test_3>:
 104:	00300193          	li	gp,3
 108:	f0000793          	li	a5,-256
 10c:	00004097          	auipc	ra,0x4
 110:	ef408093          	add	ra,ra,-268 # 4000 <begin_signature>
 114:	00209703          	lh	a4,2(ra)
 118:	f0000393          	li	t2,-256
 11c:	26771463          	bne	a4,t2,384 <fail>

0000000000000120 <test_4>:
 120:	00400193          	li	gp,4
 124:	000017b7          	lui	a5,0x1
 128:	ff07879b          	addw	a5,a5,-16 # ff0 <pass+0xc50>
 12c:	00004097          	auipc	ra,0x4
 130:	ed408093          	add	ra,ra,-300 # 4000 <begin_signature>
 134:	00409703          	lh	a4,4(ra)
 138:	000013b7          	lui	t2,0x1
 13c:	ff03839b          	addw	t2,t2,-16 # ff0 <pass+0xc50>
 140:	24771263          	bne	a4,t2,384 <fail>

0000000000000144 <test_5>:
 144:	00500193          	li	gp,5
 148:	fffff7b7          	lui	a5,0xfffff
 14c:	00f7879b          	addw	a5,a5,15 # fffffffffffff00f <_end+0xffffffffefffefc7>
 150:	00004097          	auipc	ra,0x4
 154:	eb008093          	add	ra,ra,-336 # 4000 <begin_signature>
 158:	00609703          	lh	a4,6(ra)
 15c:	fffff3b7          	lui	t2,0xfffff
 160:	00f3839b          	addw	t2,t2,15 # fffffffffffff00f <_end+0xffffffffefffefc7>
 164:	22771063          	bne	a4,t2,384 <fail>

0000000000000168 <test_6>:
 168:	00600193          	li	gp,6
 16c:	0ff00793          	li	a5,255
 170:	00004097          	auipc	ra,0x4
 174:	e9608093          	add	ra,ra,-362 # 4006 <tdat4>
 178:	ffa09703          	lh	a4,-6(ra)
 17c:	0ff00393          	li	t2,255
 180:	20771263          	bne	a4,t2,384 <fail>

0000000000000184 <test_7>:
 184:	00700193          	li	gp,7
 188:	f0000793          	li	a5,-256
 18c:	00004097          	auipc	ra,0x4
 190:	e7a08093          	add	ra,ra,-390 # 4006 <tdat4>
 194:	ffc09703          	lh	a4,-4(ra)
 198:	f0000393          	li	t2,-256
 19c:	1e771463          	bne	a4,t2,384 <fail>

00000000000001a0 <test_8>:
 1a0:	00800193          	li	gp,8
 1a4:	000017b7          	lui	a5,0x1
 1a8:	ff07879b          	addw	a5,a5,-16 # ff0 <pass+0xc50>
 1ac:	00004097          	auipc	ra,0x4
 1b0:	e5a08093          	add	ra,ra,-422 # 4006 <tdat4>
 1b4:	ffe09703          	lh	a4,-2(ra)
 1b8:	000013b7          	lui	t2,0x1
 1bc:	ff03839b          	addw	t2,t2,-16 # ff0 <pass+0xc50>
 1c0:	1c771263          	bne	a4,t2,384 <fail>

00000000000001c4 <test_9>:
 1c4:	00900193          	li	gp,9
 1c8:	fffff7b7          	lui	a5,0xfffff
 1cc:	00f7879b          	addw	a5,a5,15 # fffffffffffff00f <_end+0xffffffffefffefc7>
 1d0:	00004097          	auipc	ra,0x4
 1d4:	e3608093          	add	ra,ra,-458 # 4006 <tdat4>
 1d8:	00009703          	lh	a4,0(ra)
 1dc:	fffff3b7          	lui	t2,0xfffff
 1e0:	00f3839b          	addw	t2,t2,15 # fffffffffffff00f <_end+0xffffffffefffefc7>
 1e4:	1a771063          	bne	a4,t2,384 <fail>

00000000000001e8 <test_10>:
 1e8:	00a00193          	li	gp,10
 1ec:	00004097          	auipc	ra,0x4
 1f0:	e1408093          	add	ra,ra,-492 # 4000 <begin_signature>
 1f4:	fe008093          	add	ra,ra,-32
 1f8:	02009283          	lh	t0,32(ra)
 1fc:	0ff00393          	li	t2,255
 200:	18729263          	bne	t0,t2,384 <fail>

0000000000000204 <test_11>:
 204:	00b00193          	li	gp,11
 208:	00004097          	auipc	ra,0x4
 20c:	df808093          	add	ra,ra,-520 # 4000 <begin_signature>
 210:	ffb08093          	add	ra,ra,-5
 214:	00709283          	lh	t0,7(ra)
 218:	f0000393          	li	t2,-256
 21c:	16729463          	bne	t0,t2,384 <fail>

0000000000000220 <test_12>:
 220:	00c00193          	li	gp,12
 224:	00000213          	li	tp,0
 228:	00004097          	auipc	ra,0x4
 22c:	dda08093          	add	ra,ra,-550 # 4002 <tdat2>
 230:	00209703          	lh	a4,2(ra)
 234:	00070313          	mv	t1,a4
 238:	000013b7          	lui	t2,0x1
 23c:	ff03839b          	addw	t2,t2,-16 # ff0 <pass+0xc50>
 240:	14731263          	bne	t1,t2,384 <fail>
 244:	00120213          	add	tp,tp,1 # 1 <_start+0x1>
 248:	00200293          	li	t0,2
 24c:	fc521ee3          	bne	tp,t0,228 <test_12+0x8>

0000000000000250 <test_13>:
 250:	00d00193          	li	gp,13
 254:	00000213          	li	tp,0
 258:	00004097          	auipc	ra,0x4
 25c:	dac08093          	add	ra,ra,-596 # 4004 <tdat3>
 260:	00209703          	lh	a4,2(ra)
 264:	00000013          	nop
 268:	00070313          	mv	t1,a4
 26c:	fffff3b7          	lui	t2,0xfffff
 270:	00f3839b          	addw	t2,t2,15 # fffffffffffff00f <_end+0xffffffffefffefc7>
 274:	10731863          	bne	t1,t2,384 <fail>
 278:	00120213          	add	tp,tp,1 # 1 <_start+0x1>
 27c:	00200293          	li	t0,2
 280:	fc521ce3          	bne	tp,t0,258 <test_13+0x8>

0000000000000284 <test_14>:
 284:	00e00193          	li	gp,14
 288:	00000213          	li	tp,0
 28c:	00004097          	auipc	ra,0x4
 290:	d7408093          	add	ra,ra,-652 # 4000 <begin_signature>
 294:	00209703          	lh	a4,2(ra)
 298:	00000013          	nop
 29c:	00000013          	nop
 2a0:	00070313          	mv	t1,a4
 2a4:	f0000393          	li	t2,-256
 2a8:	0c731e63          	bne	t1,t2,384 <fail>
 2ac:	00120213          	add	tp,tp,1 # 1 <_start+0x1>
 2b0:	00200293          	li	t0,2
 2b4:	fc521ce3          	bne	tp,t0,28c <test_14+0x8>

00000000000002b8 <test_15>:
 2b8:	00f00193          	li	gp,15
 2bc:	00000213          	li	tp,0
 2c0:	00004097          	auipc	ra,0x4
 2c4:	d4208093          	add	ra,ra,-702 # 4002 <tdat2>
 2c8:	00209703          	lh	a4,2(ra)
 2cc:	000013b7          	lui	t2,0x1
 2d0:	ff03839b          	addw	t2,t2,-16 # ff0 <pass+0xc50>
 2d4:	0a771863          	bne	a4,t2,384 <fail>
 2d8:	00120213          	add	tp,tp,1 # 1 <_start+0x1>
 2dc:	00200293          	li	t0,2
 2e0:	fe5210e3          	bne	tp,t0,2c0 <test_15+0x8>

00000000000002e4 <test_16>:
 2e4:	01000193          	li	gp,16
 2e8:	00000213          	li	tp,0
 2ec:	00004097          	auipc	ra,0x4
 2f0:	d1808093          	add	ra,ra,-744 # 4004 <tdat3>
 2f4:	00000013          	nop
 2f8:	00209703          	lh	a4,2(ra)
 2fc:	fffff3b7          	lui	t2,0xfffff
 300:	00f3839b          	addw	t2,t2,15 # fffffffffffff00f <_end+0xffffffffefffefc7>
 304:	08771063          	bne	a4,t2,384 <fail>
 308:	00120213          	add	tp,tp,1 # 1 <_start+0x1>
 30c:	00200293          	li	t0,2
 310:	fc521ee3          	bne	tp,t0,2ec <test_16+0x8>

0000000000000314 <test_17>:
 314:	01100193          	li	gp,17
 318:	00000213          	li	tp,0
 31c:	00004097          	auipc	ra,0x4
 320:	ce408093          	add	ra,ra,-796 # 4000 <begin_signature>
 324:	00000013          	nop
 328:	00000013          	nop
 32c:	00209703          	lh	a4,2(ra)
 330:	f0000393          	li	t2,-256
 334:	04771863          	bne	a4,t2,384 <fail>
 338:	00120213          	add	tp,tp,1 # 1 <_start+0x1>
 33c:	00200293          	li	t0,2
 340:	fc521ee3          	bne	tp,t0,31c <test_17+0x8>

0000000000000344 <test_18>:
 344:	01200193          	li	gp,18
 348:	00004297          	auipc	t0,0x4
 34c:	cb828293          	add	t0,t0,-840 # 4000 <begin_signature>
 350:	00029103          	lh	sp,0(t0)
 354:	00200113          	li	sp,2
 358:	00200393          	li	t2,2
 35c:	02711463          	bne	sp,t2,384 <fail>

0000000000000360 <test_19>:
 360:	01300193          	li	gp,19
 364:	00004297          	auipc	t0,0x4
 368:	c9c28293          	add	t0,t0,-868 # 4000 <begin_signature>
 36c:	00029103          	lh	sp,0(t0)
 370:	00000013          	nop
 374:	00200113          	li	sp,2
 378:	00200393          	li	t2,2
 37c:	00711463          	bne	sp,t2,384 <fail>
 380:	02301063          	bne	zero,gp,3a0 <pass>

0000000000000384 <fail>:
 384:	0ff0000f          	fence
 388:	00018063          	beqz	gp,388 <fail+0x4>
 38c:	00119193          	sll	gp,gp,0x1
 390:	0011e193          	or	gp,gp,1
 394:	05d00893          	li	a7,93
 398:	00018513          	mv	a0,gp
 39c:	00000073          	ecall

00000000000003a0 <pass>:
 3a0:	0ff0000f          	fence
 3a4:	00100193          	li	gp,1
 3a8:	05d00893          	li	a7,93
 3ac:	00000513          	li	a0,0
 3b0:	00000073          	ecall
 3b4:	c0001073          	unimp
 3b8:	0000                	.2byte	0x0
 3ba:	0000                	.2byte	0x0
 3bc:	0000                	.2byte	0x0
 3be:	0000                	.2byte	0x0
 3c0:	0000                	.2byte	0x0
 3c2:	0000                	.2byte	0x0
