
lui.out:     file format elf64-littleriscv


Disassembly of section .text.init:

0000000000000000 <_start>:
   0:	03c0006f          	j	3c <reset_vector>

0000000000000004 <trap_vector>:
   4:	34202f73          	csrr	t5,mcause
   8:	00800f93          	li	t6,8
   c:	03ff0263          	beq	t5,t6,30 <write_tohost>
  10:	00900f93          	li	t6,9
  14:	01ff0e63          	beq	t5,t6,30 <write_tohost>
  18:	00b00f93          	li	t6,11
  1c:	01ff0a63          	beq	t5,t6,30 <write_tohost>
  20:	34202f73          	csrr	t5,mcause
  24:	000f5463          	bgez	t5,2c <handle_exception>
  28:	0040006f          	j	2c <handle_exception>

000000000000002c <handle_exception>:
  2c:	5391e193          	or	gp,gp,1337

0000000000000030 <write_tohost>:
  30:	10000f17          	auipc	t5,0x10000
  34:	fc3f2823          	sw	gp,-48(t5) # 10000000 <tohost>
  38:	0000006f          	j	38 <write_tohost+0x8>

000000000000003c <reset_vector>:
  3c:	b0005073          	csrw	mcycle,0
  40:	b0205073          	csrw	minstret,0
  44:	00000093          	li	ra,0
  48:	00000113          	li	sp,0
  4c:	00000193          	li	gp,0
  50:	00000213          	li	tp,0
  54:	00000293          	li	t0,0
  58:	00000313          	li	t1,0
  5c:	00000393          	li	t2,0
  60:	00000413          	li	s0,0
  64:	00000493          	li	s1,0
  68:	00000513          	li	a0,0
  6c:	00000593          	li	a1,0
  70:	00000613          	li	a2,0
  74:	00000693          	li	a3,0
  78:	00000713          	li	a4,0
  7c:	00000793          	li	a5,0
  80:	00000813          	li	a6,0
  84:	00000893          	li	a7,0
  88:	00000913          	li	s2,0
  8c:	00000993          	li	s3,0
  90:	00000a13          	li	s4,0
  94:	00000a93          	li	s5,0
  98:	00000b13          	li	s6,0
  9c:	00000b93          	li	s7,0
  a0:	00000c13          	li	s8,0
  a4:	00000c93          	li	s9,0
  a8:	00000d13          	li	s10,0
  ac:	00000d93          	li	s11,0
  b0:	00000e13          	li	t3,0
  b4:	00000e93          	li	t4,0
  b8:	00000f13          	li	t5,0
  bc:	00000f93          	li	t6,0
  c0:	00000193          	li	gp,0
  c4:	00000297          	auipc	t0,0x0
  c8:	f4028293          	add	t0,t0,-192 # 4 <trap_vector>
  cc:	30529073          	csrw	mtvec,t0
  d0:	30005073          	csrw	mstatus,0
  d4:	00000297          	auipc	t0,0x0
  d8:	01428293          	add	t0,t0,20 # e8 <test_2>
  dc:	34129073          	csrw	mepc,t0
  e0:	f1402573          	csrr	a0,mhartid
  e4:	30200073          	mret

00000000000000e8 <test_2>:
  e8:	00200193          	li	gp,2
  ec:	000000b7          	lui	ra,0x0
  f0:	00000393          	li	t2,0
  f4:	04709a63          	bne	ra,t2,148 <fail>

00000000000000f8 <test_3>:
  f8:	00300193          	li	gp,3
  fc:	fffff0b7          	lui	ra,0xfffff
 100:	4010d093          	sra	ra,ra,0x1
 104:	80000393          	li	t2,-2048
 108:	04709063          	bne	ra,t2,148 <fail>

000000000000010c <test_4>:
 10c:	00400193          	li	gp,4
 110:	7ffff0b7          	lui	ra,0x7ffff
 114:	4140d093          	sra	ra,ra,0x14
 118:	7ff00393          	li	t2,2047
 11c:	02709663          	bne	ra,t2,148 <fail>

0000000000000120 <test_5>:
 120:	00500193          	li	gp,5
 124:	800000b7          	lui	ra,0x80000
 128:	4140d093          	sra	ra,ra,0x14
 12c:	80000393          	li	t2,-2048
 130:	00709c63          	bne	ra,t2,148 <fail>

0000000000000134 <test_6>:
 134:	00600193          	li	gp,6
 138:	80000037          	lui	zero,0x80000
 13c:	00000393          	li	t2,0
 140:	00701463          	bne	zero,t2,148 <fail>
 144:	02301063          	bne	zero,gp,164 <pass>

0000000000000148 <fail>:
 148:	0ff0000f          	fence
 14c:	00018063          	beqz	gp,14c <fail+0x4>
 150:	00119193          	sll	gp,gp,0x1
 154:	0011e193          	or	gp,gp,1
 158:	05d00893          	li	a7,93
 15c:	00018513          	mv	a0,gp
 160:	00000073          	ecall

0000000000000164 <pass>:
 164:	0ff0000f          	fence
 168:	00100193          	li	gp,1
 16c:	05d00893          	li	a7,93
 170:	00000513          	li	a0,0
 174:	00000073          	ecall
 178:	c0001073          	unimp
 17c:	0000                	.2byte	0x0
 17e:	0000                	.2byte	0x0
 180:	0000                	.2byte	0x0
 182:	0000                	.2byte	0x0
