
lw.out:     file format elf64-littleriscv


Disassembly of section .text.init:

0000000000000000 <_start>:
   0:	03c0006f          	j	3c <reset_vector>

0000000000000004 <trap_vector>:
   4:	34202f73          	csrr	t5,mcause
   8:	00800f93          	li	t6,8
   c:	03ff0263          	beq	t5,t6,30 <write_tohost>
  10:	00900f93          	li	t6,9
  14:	01ff0e63          	beq	t5,t6,30 <write_tohost>
  18:	00b00f93          	li	t6,11
  1c:	01ff0a63          	beq	t5,t6,30 <write_tohost>
  20:	34202f73          	csrr	t5,mcause
  24:	000f5463          	bgez	t5,2c <handle_exception>
  28:	0040006f          	j	2c <handle_exception>

000000000000002c <handle_exception>:
  2c:	5391e193          	or	gp,gp,1337

0000000000000030 <write_tohost>:
  30:	10000f17          	auipc	t5,0x10000
  34:	fc3f2823          	sw	gp,-48(t5) # 10000000 <tohost>
  38:	0000006f          	j	38 <write_tohost+0x8>

000000000000003c <reset_vector>:
  3c:	b0005073          	csrw	mcycle,0
  40:	b0205073          	csrw	minstret,0
  44:	00000093          	li	ra,0
  48:	00000113          	li	sp,0
  4c:	00000193          	li	gp,0
  50:	00000213          	li	tp,0
  54:	00000293          	li	t0,0
  58:	00000313          	li	t1,0
  5c:	00000393          	li	t2,0
  60:	00000413          	li	s0,0
  64:	00000493          	li	s1,0
  68:	00000513          	li	a0,0
  6c:	00000593          	li	a1,0
  70:	00000613          	li	a2,0
  74:	00000693          	li	a3,0
  78:	00000713          	li	a4,0
  7c:	00000793          	li	a5,0
  80:	00000813          	li	a6,0
  84:	00000893          	li	a7,0
  88:	00000913          	li	s2,0
  8c:	00000993          	li	s3,0
  90:	00000a13          	li	s4,0
  94:	00000a93          	li	s5,0
  98:	00000b13          	li	s6,0
  9c:	00000b93          	li	s7,0
  a0:	00000c13          	li	s8,0
  a4:	00000c93          	li	s9,0
  a8:	00000d13          	li	s10,0
  ac:	00000d93          	li	s11,0
  b0:	00000e13          	li	t3,0
  b4:	00000e93          	li	t4,0
  b8:	00000f13          	li	t5,0
  bc:	00000f93          	li	t6,0
  c0:	00000193          	li	gp,0
  c4:	00000297          	auipc	t0,0x0
  c8:	f4028293          	add	t0,t0,-192 # 4 <trap_vector>
  cc:	30529073          	csrw	mtvec,t0
  d0:	30005073          	csrw	mstatus,0
  d4:	00000297          	auipc	t0,0x0
  d8:	01428293          	add	t0,t0,20 # e8 <test_2>
  dc:	34129073          	csrw	mepc,t0
  e0:	f1402573          	csrr	a0,mhartid
  e4:	30200073          	mret

00000000000000e8 <test_2>:
  e8:	00200193          	li	gp,2
  ec:	00ff07b7          	lui	a5,0xff0
  f0:	0ff7879b          	addw	a5,a5,255 # ff00ff <end_signature+0xfec0ef>
  f4:	00004097          	auipc	ra,0x4
  f8:	f0c08093          	add	ra,ra,-244 # 4000 <begin_signature>
  fc:	0000a703          	lw	a4,0(ra)
 100:	00ff03b7          	lui	t2,0xff0
 104:	0ff3839b          	addw	t2,t2,255 # ff00ff <end_signature+0xfec0ef>
 108:	2a771663          	bne	a4,t2,3b4 <fail>

000000000000010c <test_3>:
 10c:	00300193          	li	gp,3
 110:	ff0107b7          	lui	a5,0xff010
 114:	f007879b          	addw	a5,a5,-256 # ffffffffff00ff00 <_end+0xffffffffef00feb8>
 118:	00004097          	auipc	ra,0x4
 11c:	ee808093          	add	ra,ra,-280 # 4000 <begin_signature>
 120:	0040a703          	lw	a4,4(ra)
 124:	ff0103b7          	lui	t2,0xff010
 128:	f003839b          	addw	t2,t2,-256 # ffffffffff00ff00 <_end+0xffffffffef00feb8>
 12c:	28771463          	bne	a4,t2,3b4 <fail>

0000000000000130 <test_4>:
 130:	00400193          	li	gp,4
 134:	0ff017b7          	lui	a5,0xff01
 138:	ff07879b          	addw	a5,a5,-16 # ff00ff0 <end_signature+0xfefcfe0>
 13c:	00004097          	auipc	ra,0x4
 140:	ec408093          	add	ra,ra,-316 # 4000 <begin_signature>
 144:	0080a703          	lw	a4,8(ra)
 148:	0ff013b7          	lui	t2,0xff01
 14c:	ff03839b          	addw	t2,t2,-16 # ff00ff0 <end_signature+0xfefcfe0>
 150:	26771263          	bne	a4,t2,3b4 <fail>

0000000000000154 <test_5>:
 154:	00500193          	li	gp,5
 158:	f00ff7b7          	lui	a5,0xf00ff
 15c:	00f7879b          	addw	a5,a5,15 # fffffffff00ff00f <_end+0xffffffffe00fefc7>
 160:	00004097          	auipc	ra,0x4
 164:	ea008093          	add	ra,ra,-352 # 4000 <begin_signature>
 168:	00c0a703          	lw	a4,12(ra)
 16c:	f00ff3b7          	lui	t2,0xf00ff
 170:	00f3839b          	addw	t2,t2,15 # fffffffff00ff00f <_end+0xffffffffe00fefc7>
 174:	24771063          	bne	a4,t2,3b4 <fail>

0000000000000178 <test_6>:
 178:	00600193          	li	gp,6
 17c:	00ff07b7          	lui	a5,0xff0
 180:	0ff7879b          	addw	a5,a5,255 # ff00ff <end_signature+0xfec0ef>
 184:	00004097          	auipc	ra,0x4
 188:	e8808093          	add	ra,ra,-376 # 400c <tdat4>
 18c:	ff40a703          	lw	a4,-12(ra)
 190:	00ff03b7          	lui	t2,0xff0
 194:	0ff3839b          	addw	t2,t2,255 # ff00ff <end_signature+0xfec0ef>
 198:	20771e63          	bne	a4,t2,3b4 <fail>

000000000000019c <test_7>:
 19c:	00700193          	li	gp,7
 1a0:	ff0107b7          	lui	a5,0xff010
 1a4:	f007879b          	addw	a5,a5,-256 # ffffffffff00ff00 <_end+0xffffffffef00feb8>
 1a8:	00004097          	auipc	ra,0x4
 1ac:	e6408093          	add	ra,ra,-412 # 400c <tdat4>
 1b0:	ff80a703          	lw	a4,-8(ra)
 1b4:	ff0103b7          	lui	t2,0xff010
 1b8:	f003839b          	addw	t2,t2,-256 # ffffffffff00ff00 <_end+0xffffffffef00feb8>
 1bc:	1e771c63          	bne	a4,t2,3b4 <fail>

00000000000001c0 <test_8>:
 1c0:	00800193          	li	gp,8
 1c4:	0ff017b7          	lui	a5,0xff01
 1c8:	ff07879b          	addw	a5,a5,-16 # ff00ff0 <end_signature+0xfefcfe0>
 1cc:	00004097          	auipc	ra,0x4
 1d0:	e4008093          	add	ra,ra,-448 # 400c <tdat4>
 1d4:	ffc0a703          	lw	a4,-4(ra)
 1d8:	0ff013b7          	lui	t2,0xff01
 1dc:	ff03839b          	addw	t2,t2,-16 # ff00ff0 <end_signature+0xfefcfe0>
 1e0:	1c771a63          	bne	a4,t2,3b4 <fail>

00000000000001e4 <test_9>:
 1e4:	00900193          	li	gp,9
 1e8:	f00ff7b7          	lui	a5,0xf00ff
 1ec:	00f7879b          	addw	a5,a5,15 # fffffffff00ff00f <_end+0xffffffffe00fefc7>
 1f0:	00004097          	auipc	ra,0x4
 1f4:	e1c08093          	add	ra,ra,-484 # 400c <tdat4>
 1f8:	0000a703          	lw	a4,0(ra)
 1fc:	f00ff3b7          	lui	t2,0xf00ff
 200:	00f3839b          	addw	t2,t2,15 # fffffffff00ff00f <_end+0xffffffffe00fefc7>
 204:	1a771863          	bne	a4,t2,3b4 <fail>

0000000000000208 <test_10>:
 208:	00a00193          	li	gp,10
 20c:	00004097          	auipc	ra,0x4
 210:	df408093          	add	ra,ra,-524 # 4000 <begin_signature>
 214:	fe008093          	add	ra,ra,-32
 218:	0200a283          	lw	t0,32(ra)
 21c:	00ff03b7          	lui	t2,0xff0
 220:	0ff3839b          	addw	t2,t2,255 # ff00ff <end_signature+0xfec0ef>
 224:	18729863          	bne	t0,t2,3b4 <fail>

0000000000000228 <test_11>:
 228:	00b00193          	li	gp,11
 22c:	00004097          	auipc	ra,0x4
 230:	dd408093          	add	ra,ra,-556 # 4000 <begin_signature>
 234:	ffd08093          	add	ra,ra,-3
 238:	0070a283          	lw	t0,7(ra)
 23c:	ff0103b7          	lui	t2,0xff010
 240:	f003839b          	addw	t2,t2,-256 # ffffffffff00ff00 <_end+0xffffffffef00feb8>
 244:	16729863          	bne	t0,t2,3b4 <fail>

0000000000000248 <test_12>:
 248:	00c00193          	li	gp,12
 24c:	00000213          	li	tp,0
 250:	00004097          	auipc	ra,0x4
 254:	db408093          	add	ra,ra,-588 # 4004 <tdat2>
 258:	0040a703          	lw	a4,4(ra)
 25c:	00070313          	mv	t1,a4
 260:	0ff013b7          	lui	t2,0xff01
 264:	ff03839b          	addw	t2,t2,-16 # ff00ff0 <end_signature+0xfefcfe0>
 268:	14731663          	bne	t1,t2,3b4 <fail>
 26c:	00120213          	add	tp,tp,1 # 1 <_start+0x1>
 270:	00200293          	li	t0,2
 274:	fc521ee3          	bne	tp,t0,250 <test_12+0x8>

0000000000000278 <test_13>:
 278:	00d00193          	li	gp,13
 27c:	00000213          	li	tp,0
 280:	00004097          	auipc	ra,0x4
 284:	d8808093          	add	ra,ra,-632 # 4008 <tdat3>
 288:	0040a703          	lw	a4,4(ra)
 28c:	00000013          	nop
 290:	00070313          	mv	t1,a4
 294:	f00ff3b7          	lui	t2,0xf00ff
 298:	00f3839b          	addw	t2,t2,15 # fffffffff00ff00f <_end+0xffffffffe00fefc7>
 29c:	10731c63          	bne	t1,t2,3b4 <fail>
 2a0:	00120213          	add	tp,tp,1 # 1 <_start+0x1>
 2a4:	00200293          	li	t0,2
 2a8:	fc521ce3          	bne	tp,t0,280 <test_13+0x8>

00000000000002ac <test_14>:
 2ac:	00e00193          	li	gp,14
 2b0:	00000213          	li	tp,0
 2b4:	00004097          	auipc	ra,0x4
 2b8:	d4c08093          	add	ra,ra,-692 # 4000 <begin_signature>
 2bc:	0040a703          	lw	a4,4(ra)
 2c0:	00000013          	nop
 2c4:	00000013          	nop
 2c8:	00070313          	mv	t1,a4
 2cc:	ff0103b7          	lui	t2,0xff010
 2d0:	f003839b          	addw	t2,t2,-256 # ffffffffff00ff00 <_end+0xffffffffef00feb8>
 2d4:	0e731063          	bne	t1,t2,3b4 <fail>
 2d8:	00120213          	add	tp,tp,1 # 1 <_start+0x1>
 2dc:	00200293          	li	t0,2
 2e0:	fc521ae3          	bne	tp,t0,2b4 <test_14+0x8>

00000000000002e4 <test_15>:
 2e4:	00f00193          	li	gp,15
 2e8:	00000213          	li	tp,0
 2ec:	00004097          	auipc	ra,0x4
 2f0:	d1808093          	add	ra,ra,-744 # 4004 <tdat2>
 2f4:	0040a703          	lw	a4,4(ra)
 2f8:	0ff013b7          	lui	t2,0xff01
 2fc:	ff03839b          	addw	t2,t2,-16 # ff00ff0 <end_signature+0xfefcfe0>
 300:	0a771a63          	bne	a4,t2,3b4 <fail>
 304:	00120213          	add	tp,tp,1 # 1 <_start+0x1>
 308:	00200293          	li	t0,2
 30c:	fe5210e3          	bne	tp,t0,2ec <test_15+0x8>

0000000000000310 <test_16>:
 310:	01000193          	li	gp,16
 314:	00000213          	li	tp,0
 318:	00004097          	auipc	ra,0x4
 31c:	cf008093          	add	ra,ra,-784 # 4008 <tdat3>
 320:	00000013          	nop
 324:	0040a703          	lw	a4,4(ra)
 328:	f00ff3b7          	lui	t2,0xf00ff
 32c:	00f3839b          	addw	t2,t2,15 # fffffffff00ff00f <_end+0xffffffffe00fefc7>
 330:	08771263          	bne	a4,t2,3b4 <fail>
 334:	00120213          	add	tp,tp,1 # 1 <_start+0x1>
 338:	00200293          	li	t0,2
 33c:	fc521ee3          	bne	tp,t0,318 <test_16+0x8>

0000000000000340 <test_17>:
 340:	01100193          	li	gp,17
 344:	00000213          	li	tp,0
 348:	00004097          	auipc	ra,0x4
 34c:	cb808093          	add	ra,ra,-840 # 4000 <begin_signature>
 350:	00000013          	nop
 354:	00000013          	nop
 358:	0040a703          	lw	a4,4(ra)
 35c:	ff0103b7          	lui	t2,0xff010
 360:	f003839b          	addw	t2,t2,-256 # ffffffffff00ff00 <_end+0xffffffffef00feb8>
 364:	04771863          	bne	a4,t2,3b4 <fail>
 368:	00120213          	add	tp,tp,1 # 1 <_start+0x1>
 36c:	00200293          	li	t0,2
 370:	fc521ce3          	bne	tp,t0,348 <test_17+0x8>

0000000000000374 <test_18>:
 374:	01200193          	li	gp,18
 378:	00004297          	auipc	t0,0x4
 37c:	c8828293          	add	t0,t0,-888 # 4000 <begin_signature>
 380:	0002a103          	lw	sp,0(t0)
 384:	00200113          	li	sp,2
 388:	00200393          	li	t2,2
 38c:	02711463          	bne	sp,t2,3b4 <fail>

0000000000000390 <test_19>:
 390:	01300193          	li	gp,19
 394:	00004297          	auipc	t0,0x4
 398:	c6c28293          	add	t0,t0,-916 # 4000 <begin_signature>
 39c:	0002a103          	lw	sp,0(t0)
 3a0:	00000013          	nop
 3a4:	00200113          	li	sp,2
 3a8:	00200393          	li	t2,2
 3ac:	00711463          	bne	sp,t2,3b4 <fail>
 3b0:	02301063          	bne	zero,gp,3d0 <pass>

00000000000003b4 <fail>:
 3b4:	0ff0000f          	fence
 3b8:	00018063          	beqz	gp,3b8 <fail+0x4>
 3bc:	00119193          	sll	gp,gp,0x1
 3c0:	0011e193          	or	gp,gp,1
 3c4:	05d00893          	li	a7,93
 3c8:	00018513          	mv	a0,gp
 3cc:	00000073          	ecall

00000000000003d0 <pass>:
 3d0:	0ff0000f          	fence
 3d4:	00100193          	li	gp,1
 3d8:	05d00893          	li	a7,93
 3dc:	00000513          	li	a0,0
 3e0:	00000073          	ecall
 3e4:	c0001073          	unimp
 3e8:	0000                	.2byte	0x0
 3ea:	0000                	.2byte	0x0
 3ec:	0000                	.2byte	0x0
 3ee:	0000                	.2byte	0x0
 3f0:	0000                	.2byte	0x0
 3f2:	0000                	.2byte	0x0
 3f4:	0000                	.2byte	0x0
 3f6:	0000                	.2byte	0x0
 3f8:	0000                	.2byte	0x0
 3fa:	0000                	.2byte	0x0
 3fc:	0000                	.2byte	0x0
 3fe:	0000                	.2byte	0x0
 400:	0000                	.2byte	0x0
 402:	0000                	.2byte	0x0
