
or.out:     file format elf64-littleriscv


Disassembly of section .text.init:

0000000000000000 <_start>:
   0:	03c0006f          	j	3c <reset_vector>

0000000000000004 <trap_vector>:
   4:	34202f73          	csrr	t5,mcause
   8:	00800f93          	li	t6,8
   c:	03ff0263          	beq	t5,t6,30 <write_tohost>
  10:	00900f93          	li	t6,9
  14:	01ff0e63          	beq	t5,t6,30 <write_tohost>
  18:	00b00f93          	li	t6,11
  1c:	01ff0a63          	beq	t5,t6,30 <write_tohost>
  20:	34202f73          	csrr	t5,mcause
  24:	000f5463          	bgez	t5,2c <handle_exception>
  28:	0040006f          	j	2c <handle_exception>

000000000000002c <handle_exception>:
  2c:	5391e193          	or	gp,gp,1337

0000000000000030 <write_tohost>:
  30:	10000f17          	auipc	t5,0x10000
  34:	fc3f2823          	sw	gp,-48(t5) # 10000000 <tohost>
  38:	0000006f          	j	38 <write_tohost+0x8>

000000000000003c <reset_vector>:
  3c:	b0005073          	csrw	mcycle,0
  40:	b0205073          	csrw	minstret,0
  44:	00000093          	li	ra,0
  48:	00000113          	li	sp,0
  4c:	00000193          	li	gp,0
  50:	00000213          	li	tp,0
  54:	00000293          	li	t0,0
  58:	00000313          	li	t1,0
  5c:	00000393          	li	t2,0
  60:	00000413          	li	s0,0
  64:	00000493          	li	s1,0
  68:	00000513          	li	a0,0
  6c:	00000593          	li	a1,0
  70:	00000613          	li	a2,0
  74:	00000693          	li	a3,0
  78:	00000713          	li	a4,0
  7c:	00000793          	li	a5,0
  80:	00000813          	li	a6,0
  84:	00000893          	li	a7,0
  88:	00000913          	li	s2,0
  8c:	00000993          	li	s3,0
  90:	00000a13          	li	s4,0
  94:	00000a93          	li	s5,0
  98:	00000b13          	li	s6,0
  9c:	00000b93          	li	s7,0
  a0:	00000c13          	li	s8,0
  a4:	00000c93          	li	s9,0
  a8:	00000d13          	li	s10,0
  ac:	00000d93          	li	s11,0
  b0:	00000e13          	li	t3,0
  b4:	00000e93          	li	t4,0
  b8:	00000f13          	li	t5,0
  bc:	00000f93          	li	t6,0
  c0:	00000193          	li	gp,0
  c4:	00000297          	auipc	t0,0x0
  c8:	f4028293          	add	t0,t0,-192 # 4 <trap_vector>
  cc:	30529073          	csrw	mtvec,t0
  d0:	30005073          	csrw	mstatus,0
  d4:	00000297          	auipc	t0,0x0
  d8:	01428293          	add	t0,t0,20 # e8 <test_2>
  dc:	34129073          	csrw	mepc,t0
  e0:	f1402573          	csrr	a0,mhartid
  e4:	30200073          	mret

00000000000000e8 <test_2>:
  e8:	00200193          	li	gp,2
  ec:	000100b7          	lui	ra,0x10
  f0:	f010809b          	addw	ra,ra,-255 # ff01 <begin_signature+0xbf01>
  f4:	01009093          	sll	ra,ra,0x10
  f8:	f0008093          	add	ra,ra,-256
  fc:	0f0f1137          	lui	sp,0xf0f1
 100:	f0f1011b          	addw	sp,sp,-241 # f0f0f0f <begin_signature+0xf0ecf0f>
 104:	0020e733          	or	a4,ra,sp
 108:	000013b7          	lui	t2,0x1
 10c:	ff13839b          	addw	t2,t2,-15 # ff1 <pass+0x911>
 110:	01439393          	sll	t2,t2,0x14
 114:	f0f38393          	add	t2,t2,-241
 118:	5a771663          	bne	a4,t2,6c4 <fail>

000000000000011c <test_3>:
 11c:	00300193          	li	gp,3
 120:	0ff010b7          	lui	ra,0xff01
 124:	ff00809b          	addw	ra,ra,-16 # ff00ff0 <begin_signature+0xfefcff0>
 128:	000f1137          	lui	sp,0xf1
 12c:	f0f1011b          	addw	sp,sp,-241 # f0f0f <begin_signature+0xecf0f>
 130:	00c11113          	sll	sp,sp,0xc
 134:	0f010113          	add	sp,sp,240
 138:	0020e733          	or	a4,ra,sp
 13c:	000103b7          	lui	t2,0x10
 140:	ff13839b          	addw	t2,t2,-15 # fff1 <begin_signature+0xbff1>
 144:	01039393          	sll	t2,t2,0x10
 148:	ff038393          	add	t2,t2,-16
 14c:	56771c63          	bne	a4,t2,6c4 <fail>

0000000000000150 <test_4>:
 150:	00400193          	li	gp,4
 154:	00ff00b7          	lui	ra,0xff0
 158:	0ff0809b          	addw	ra,ra,255 # ff00ff <begin_signature+0xfec0ff>
 15c:	0f0f1137          	lui	sp,0xf0f1
 160:	f0f1011b          	addw	sp,sp,-241 # f0f0f0f <begin_signature+0xf0ecf0f>
 164:	0020e733          	or	a4,ra,sp
 168:	0fff13b7          	lui	t2,0xfff1
 16c:	fff3839b          	addw	t2,t2,-1 # fff0fff <begin_signature+0xffecfff>
 170:	54771a63          	bne	a4,t2,6c4 <fail>

0000000000000174 <test_5>:
 174:	00500193          	li	gp,5
 178:	000f00b7          	lui	ra,0xf0
 17c:	0ff0809b          	addw	ra,ra,255 # f00ff <begin_signature+0xec0ff>
 180:	00c09093          	sll	ra,ra,0xc
 184:	00f08093          	add	ra,ra,15
 188:	000f1137          	lui	sp,0xf1
 18c:	f0f1011b          	addw	sp,sp,-241 # f0f0f <begin_signature+0xecf0f>
 190:	00c11113          	sll	sp,sp,0xc
 194:	0f010113          	add	sp,sp,240
 198:	0020e733          	or	a4,ra,sp
 19c:	000f13b7          	lui	t2,0xf1
 1a0:	fff3839b          	addw	t2,t2,-1 # f0fff <begin_signature+0xecfff>
 1a4:	00c39393          	sll	t2,t2,0xc
 1a8:	0ff38393          	add	t2,t2,255
 1ac:	50771c63          	bne	a4,t2,6c4 <fail>

00000000000001b0 <test_6>:
 1b0:	00600193          	li	gp,6
 1b4:	000100b7          	lui	ra,0x10
 1b8:	f010809b          	addw	ra,ra,-255 # ff01 <begin_signature+0xbf01>
 1bc:	01009093          	sll	ra,ra,0x10
 1c0:	f0008093          	add	ra,ra,-256
 1c4:	0f0f1137          	lui	sp,0xf0f1
 1c8:	f0f1011b          	addw	sp,sp,-241 # f0f0f0f <begin_signature+0xf0ecf0f>
 1cc:	0020e0b3          	or	ra,ra,sp
 1d0:	000013b7          	lui	t2,0x1
 1d4:	ff13839b          	addw	t2,t2,-15 # ff1 <pass+0x911>
 1d8:	01439393          	sll	t2,t2,0x14
 1dc:	f0f38393          	add	t2,t2,-241
 1e0:	4e709263          	bne	ra,t2,6c4 <fail>

00000000000001e4 <test_7>:
 1e4:	00700193          	li	gp,7
 1e8:	000100b7          	lui	ra,0x10
 1ec:	f010809b          	addw	ra,ra,-255 # ff01 <begin_signature+0xbf01>
 1f0:	01009093          	sll	ra,ra,0x10
 1f4:	f0008093          	add	ra,ra,-256
 1f8:	0f0f1137          	lui	sp,0xf0f1
 1fc:	f0f1011b          	addw	sp,sp,-241 # f0f0f0f <begin_signature+0xf0ecf0f>
 200:	0020e133          	or	sp,ra,sp
 204:	000013b7          	lui	t2,0x1
 208:	ff13839b          	addw	t2,t2,-15 # ff1 <pass+0x911>
 20c:	01439393          	sll	t2,t2,0x14
 210:	f0f38393          	add	t2,t2,-241
 214:	4a711863          	bne	sp,t2,6c4 <fail>

0000000000000218 <test_8>:
 218:	00800193          	li	gp,8
 21c:	000100b7          	lui	ra,0x10
 220:	f010809b          	addw	ra,ra,-255 # ff01 <begin_signature+0xbf01>
 224:	01009093          	sll	ra,ra,0x10
 228:	f0008093          	add	ra,ra,-256
 22c:	0010e0b3          	or	ra,ra,ra
 230:	000103b7          	lui	t2,0x10
 234:	f013839b          	addw	t2,t2,-255 # ff01 <begin_signature+0xbf01>
 238:	01039393          	sll	t2,t2,0x10
 23c:	f0038393          	add	t2,t2,-256
 240:	48709263          	bne	ra,t2,6c4 <fail>

0000000000000244 <test_9>:
 244:	00900193          	li	gp,9
 248:	00000213          	li	tp,0
 24c:	000100b7          	lui	ra,0x10
 250:	f010809b          	addw	ra,ra,-255 # ff01 <begin_signature+0xbf01>
 254:	01009093          	sll	ra,ra,0x10
 258:	f0008093          	add	ra,ra,-256
 25c:	0f0f1137          	lui	sp,0xf0f1
 260:	f0f1011b          	addw	sp,sp,-241 # f0f0f0f <begin_signature+0xf0ecf0f>
 264:	0020e733          	or	a4,ra,sp
 268:	00070313          	mv	t1,a4
 26c:	00120213          	add	tp,tp,1 # 1 <_start+0x1>
 270:	00200293          	li	t0,2
 274:	fc521ce3          	bne	tp,t0,24c <test_9+0x8>
 278:	000013b7          	lui	t2,0x1
 27c:	ff13839b          	addw	t2,t2,-15 # ff1 <pass+0x911>
 280:	01439393          	sll	t2,t2,0x14
 284:	f0f38393          	add	t2,t2,-241
 288:	42731e63          	bne	t1,t2,6c4 <fail>

000000000000028c <test_10>:
 28c:	00a00193          	li	gp,10
 290:	00000213          	li	tp,0
 294:	0ff010b7          	lui	ra,0xff01
 298:	ff00809b          	addw	ra,ra,-16 # ff00ff0 <begin_signature+0xfefcff0>
 29c:	000f1137          	lui	sp,0xf1
 2a0:	f0f1011b          	addw	sp,sp,-241 # f0f0f <begin_signature+0xecf0f>
 2a4:	00c11113          	sll	sp,sp,0xc
 2a8:	0f010113          	add	sp,sp,240
 2ac:	0020e733          	or	a4,ra,sp
 2b0:	00000013          	nop
 2b4:	00070313          	mv	t1,a4
 2b8:	00120213          	add	tp,tp,1 # 1 <_start+0x1>
 2bc:	00200293          	li	t0,2
 2c0:	fc521ae3          	bne	tp,t0,294 <test_10+0x8>
 2c4:	000103b7          	lui	t2,0x10
 2c8:	ff13839b          	addw	t2,t2,-15 # fff1 <begin_signature+0xbff1>
 2cc:	01039393          	sll	t2,t2,0x10
 2d0:	ff038393          	add	t2,t2,-16
 2d4:	3e731863          	bne	t1,t2,6c4 <fail>

00000000000002d8 <test_11>:
 2d8:	00b00193          	li	gp,11
 2dc:	00000213          	li	tp,0
 2e0:	00ff00b7          	lui	ra,0xff0
 2e4:	0ff0809b          	addw	ra,ra,255 # ff00ff <begin_signature+0xfec0ff>
 2e8:	0f0f1137          	lui	sp,0xf0f1
 2ec:	f0f1011b          	addw	sp,sp,-241 # f0f0f0f <begin_signature+0xf0ecf0f>
 2f0:	0020e733          	or	a4,ra,sp
 2f4:	00000013          	nop
 2f8:	00000013          	nop
 2fc:	00070313          	mv	t1,a4
 300:	00120213          	add	tp,tp,1 # 1 <_start+0x1>
 304:	00200293          	li	t0,2
 308:	fc521ce3          	bne	tp,t0,2e0 <test_11+0x8>
 30c:	0fff13b7          	lui	t2,0xfff1
 310:	fff3839b          	addw	t2,t2,-1 # fff0fff <begin_signature+0xffecfff>
 314:	3a731863          	bne	t1,t2,6c4 <fail>

0000000000000318 <test_12>:
 318:	00c00193          	li	gp,12
 31c:	00000213          	li	tp,0
 320:	000100b7          	lui	ra,0x10
 324:	f010809b          	addw	ra,ra,-255 # ff01 <begin_signature+0xbf01>
 328:	01009093          	sll	ra,ra,0x10
 32c:	f0008093          	add	ra,ra,-256
 330:	0f0f1137          	lui	sp,0xf0f1
 334:	f0f1011b          	addw	sp,sp,-241 # f0f0f0f <begin_signature+0xf0ecf0f>
 338:	0020e733          	or	a4,ra,sp
 33c:	00120213          	add	tp,tp,1 # 1 <_start+0x1>
 340:	00200293          	li	t0,2
 344:	fc521ee3          	bne	tp,t0,320 <test_12+0x8>
 348:	000013b7          	lui	t2,0x1
 34c:	ff13839b          	addw	t2,t2,-15 # ff1 <pass+0x911>
 350:	01439393          	sll	t2,t2,0x14
 354:	f0f38393          	add	t2,t2,-241
 358:	36771663          	bne	a4,t2,6c4 <fail>

000000000000035c <test_13>:
 35c:	00d00193          	li	gp,13
 360:	00000213          	li	tp,0
 364:	0ff010b7          	lui	ra,0xff01
 368:	ff00809b          	addw	ra,ra,-16 # ff00ff0 <begin_signature+0xfefcff0>
 36c:	000f1137          	lui	sp,0xf1
 370:	f0f1011b          	addw	sp,sp,-241 # f0f0f <begin_signature+0xecf0f>
 374:	00c11113          	sll	sp,sp,0xc
 378:	0f010113          	add	sp,sp,240
 37c:	00000013          	nop
 380:	0020e733          	or	a4,ra,sp
 384:	00120213          	add	tp,tp,1 # 1 <_start+0x1>
 388:	00200293          	li	t0,2
 38c:	fc521ce3          	bne	tp,t0,364 <test_13+0x8>
 390:	000103b7          	lui	t2,0x10
 394:	ff13839b          	addw	t2,t2,-15 # fff1 <begin_signature+0xbff1>
 398:	01039393          	sll	t2,t2,0x10
 39c:	ff038393          	add	t2,t2,-16
 3a0:	32771263          	bne	a4,t2,6c4 <fail>

00000000000003a4 <test_14>:
 3a4:	00e00193          	li	gp,14
 3a8:	00000213          	li	tp,0
 3ac:	00ff00b7          	lui	ra,0xff0
 3b0:	0ff0809b          	addw	ra,ra,255 # ff00ff <begin_signature+0xfec0ff>
 3b4:	0f0f1137          	lui	sp,0xf0f1
 3b8:	f0f1011b          	addw	sp,sp,-241 # f0f0f0f <begin_signature+0xf0ecf0f>
 3bc:	00000013          	nop
 3c0:	00000013          	nop
 3c4:	0020e733          	or	a4,ra,sp
 3c8:	00120213          	add	tp,tp,1 # 1 <_start+0x1>
 3cc:	00200293          	li	t0,2
 3d0:	fc521ee3          	bne	tp,t0,3ac <test_14+0x8>
 3d4:	0fff13b7          	lui	t2,0xfff1
 3d8:	fff3839b          	addw	t2,t2,-1 # fff0fff <begin_signature+0xffecfff>
 3dc:	2e771463          	bne	a4,t2,6c4 <fail>

00000000000003e0 <test_15>:
 3e0:	00f00193          	li	gp,15
 3e4:	00000213          	li	tp,0
 3e8:	000100b7          	lui	ra,0x10
 3ec:	f010809b          	addw	ra,ra,-255 # ff01 <begin_signature+0xbf01>
 3f0:	01009093          	sll	ra,ra,0x10
 3f4:	f0008093          	add	ra,ra,-256
 3f8:	00000013          	nop
 3fc:	0f0f1137          	lui	sp,0xf0f1
 400:	f0f1011b          	addw	sp,sp,-241 # f0f0f0f <begin_signature+0xf0ecf0f>
 404:	0020e733          	or	a4,ra,sp
 408:	00120213          	add	tp,tp,1 # 1 <_start+0x1>
 40c:	00200293          	li	t0,2
 410:	fc521ce3          	bne	tp,t0,3e8 <test_15+0x8>
 414:	000013b7          	lui	t2,0x1
 418:	ff13839b          	addw	t2,t2,-15 # ff1 <pass+0x911>
 41c:	01439393          	sll	t2,t2,0x14
 420:	f0f38393          	add	t2,t2,-241
 424:	2a771063          	bne	a4,t2,6c4 <fail>

0000000000000428 <test_16>:
 428:	01000193          	li	gp,16
 42c:	00000213          	li	tp,0
 430:	0ff010b7          	lui	ra,0xff01
 434:	ff00809b          	addw	ra,ra,-16 # ff00ff0 <begin_signature+0xfefcff0>
 438:	00000013          	nop
 43c:	000f1137          	lui	sp,0xf1
 440:	f0f1011b          	addw	sp,sp,-241 # f0f0f <begin_signature+0xecf0f>
 444:	00c11113          	sll	sp,sp,0xc
 448:	0f010113          	add	sp,sp,240
 44c:	00000013          	nop
 450:	0020e733          	or	a4,ra,sp
 454:	00120213          	add	tp,tp,1 # 1 <_start+0x1>
 458:	00200293          	li	t0,2
 45c:	fc521ae3          	bne	tp,t0,430 <test_16+0x8>
 460:	000103b7          	lui	t2,0x10
 464:	ff13839b          	addw	t2,t2,-15 # fff1 <begin_signature+0xbff1>
 468:	01039393          	sll	t2,t2,0x10
 46c:	ff038393          	add	t2,t2,-16
 470:	24771a63          	bne	a4,t2,6c4 <fail>

0000000000000474 <test_17>:
 474:	01100193          	li	gp,17
 478:	00000213          	li	tp,0
 47c:	00ff00b7          	lui	ra,0xff0
 480:	0ff0809b          	addw	ra,ra,255 # ff00ff <begin_signature+0xfec0ff>
 484:	00000013          	nop
 488:	00000013          	nop
 48c:	0f0f1137          	lui	sp,0xf0f1
 490:	f0f1011b          	addw	sp,sp,-241 # f0f0f0f <begin_signature+0xf0ecf0f>
 494:	0020e733          	or	a4,ra,sp
 498:	00120213          	add	tp,tp,1 # 1 <_start+0x1>
 49c:	00200293          	li	t0,2
 4a0:	fc521ee3          	bne	tp,t0,47c <test_17+0x8>
 4a4:	0fff13b7          	lui	t2,0xfff1
 4a8:	fff3839b          	addw	t2,t2,-1 # fff0fff <begin_signature+0xffecfff>
 4ac:	20771c63          	bne	a4,t2,6c4 <fail>

00000000000004b0 <test_18>:
 4b0:	01200193          	li	gp,18
 4b4:	00000213          	li	tp,0
 4b8:	0f0f1137          	lui	sp,0xf0f1
 4bc:	f0f1011b          	addw	sp,sp,-241 # f0f0f0f <begin_signature+0xf0ecf0f>
 4c0:	000100b7          	lui	ra,0x10
 4c4:	f010809b          	addw	ra,ra,-255 # ff01 <begin_signature+0xbf01>
 4c8:	01009093          	sll	ra,ra,0x10
 4cc:	f0008093          	add	ra,ra,-256
 4d0:	0020e733          	or	a4,ra,sp
 4d4:	00120213          	add	tp,tp,1 # 1 <_start+0x1>
 4d8:	00200293          	li	t0,2
 4dc:	fc521ee3          	bne	tp,t0,4b8 <test_18+0x8>
 4e0:	000013b7          	lui	t2,0x1
 4e4:	ff13839b          	addw	t2,t2,-15 # ff1 <pass+0x911>
 4e8:	01439393          	sll	t2,t2,0x14
 4ec:	f0f38393          	add	t2,t2,-241
 4f0:	1c771a63          	bne	a4,t2,6c4 <fail>

00000000000004f4 <test_19>:
 4f4:	01300193          	li	gp,19
 4f8:	00000213          	li	tp,0
 4fc:	000f1137          	lui	sp,0xf1
 500:	f0f1011b          	addw	sp,sp,-241 # f0f0f <begin_signature+0xecf0f>
 504:	00c11113          	sll	sp,sp,0xc
 508:	0f010113          	add	sp,sp,240
 50c:	0ff010b7          	lui	ra,0xff01
 510:	ff00809b          	addw	ra,ra,-16 # ff00ff0 <begin_signature+0xfefcff0>
 514:	00000013          	nop
 518:	0020e733          	or	a4,ra,sp
 51c:	00120213          	add	tp,tp,1 # 1 <_start+0x1>
 520:	00200293          	li	t0,2
 524:	fc521ce3          	bne	tp,t0,4fc <test_19+0x8>
 528:	000103b7          	lui	t2,0x10
 52c:	ff13839b          	addw	t2,t2,-15 # fff1 <begin_signature+0xbff1>
 530:	01039393          	sll	t2,t2,0x10
 534:	ff038393          	add	t2,t2,-16
 538:	18771663          	bne	a4,t2,6c4 <fail>

000000000000053c <test_20>:
 53c:	01400193          	li	gp,20
 540:	00000213          	li	tp,0
 544:	0f0f1137          	lui	sp,0xf0f1
 548:	f0f1011b          	addw	sp,sp,-241 # f0f0f0f <begin_signature+0xf0ecf0f>
 54c:	00ff00b7          	lui	ra,0xff0
 550:	0ff0809b          	addw	ra,ra,255 # ff00ff <begin_signature+0xfec0ff>
 554:	00000013          	nop
 558:	00000013          	nop
 55c:	0020e733          	or	a4,ra,sp
 560:	00120213          	add	tp,tp,1 # 1 <_start+0x1>
 564:	00200293          	li	t0,2
 568:	fc521ee3          	bne	tp,t0,544 <test_20+0x8>
 56c:	0fff13b7          	lui	t2,0xfff1
 570:	fff3839b          	addw	t2,t2,-1 # fff0fff <begin_signature+0xffecfff>
 574:	14771863          	bne	a4,t2,6c4 <fail>

0000000000000578 <test_21>:
 578:	01500193          	li	gp,21
 57c:	00000213          	li	tp,0
 580:	0f0f1137          	lui	sp,0xf0f1
 584:	f0f1011b          	addw	sp,sp,-241 # f0f0f0f <begin_signature+0xf0ecf0f>
 588:	00000013          	nop
 58c:	000100b7          	lui	ra,0x10
 590:	f010809b          	addw	ra,ra,-255 # ff01 <begin_signature+0xbf01>
 594:	01009093          	sll	ra,ra,0x10
 598:	f0008093          	add	ra,ra,-256
 59c:	0020e733          	or	a4,ra,sp
 5a0:	00120213          	add	tp,tp,1 # 1 <_start+0x1>
 5a4:	00200293          	li	t0,2
 5a8:	fc521ce3          	bne	tp,t0,580 <test_21+0x8>
 5ac:	000013b7          	lui	t2,0x1
 5b0:	ff13839b          	addw	t2,t2,-15 # ff1 <pass+0x911>
 5b4:	01439393          	sll	t2,t2,0x14
 5b8:	f0f38393          	add	t2,t2,-241
 5bc:	10771463          	bne	a4,t2,6c4 <fail>

00000000000005c0 <test_22>:
 5c0:	01600193          	li	gp,22
 5c4:	00000213          	li	tp,0
 5c8:	000f1137          	lui	sp,0xf1
 5cc:	f0f1011b          	addw	sp,sp,-241 # f0f0f <begin_signature+0xecf0f>
 5d0:	00c11113          	sll	sp,sp,0xc
 5d4:	0f010113          	add	sp,sp,240
 5d8:	00000013          	nop
 5dc:	0ff010b7          	lui	ra,0xff01
 5e0:	ff00809b          	addw	ra,ra,-16 # ff00ff0 <begin_signature+0xfefcff0>
 5e4:	00000013          	nop
 5e8:	0020e733          	or	a4,ra,sp
 5ec:	00120213          	add	tp,tp,1 # 1 <_start+0x1>
 5f0:	00200293          	li	t0,2
 5f4:	fc521ae3          	bne	tp,t0,5c8 <test_22+0x8>
 5f8:	000103b7          	lui	t2,0x10
 5fc:	ff13839b          	addw	t2,t2,-15 # fff1 <begin_signature+0xbff1>
 600:	01039393          	sll	t2,t2,0x10
 604:	ff038393          	add	t2,t2,-16
 608:	0a771e63          	bne	a4,t2,6c4 <fail>

000000000000060c <test_23>:
 60c:	01700193          	li	gp,23
 610:	00000213          	li	tp,0
 614:	0f0f1137          	lui	sp,0xf0f1
 618:	f0f1011b          	addw	sp,sp,-241 # f0f0f0f <begin_signature+0xf0ecf0f>
 61c:	00000013          	nop
 620:	00000013          	nop
 624:	00ff00b7          	lui	ra,0xff0
 628:	0ff0809b          	addw	ra,ra,255 # ff00ff <begin_signature+0xfec0ff>
 62c:	0020e733          	or	a4,ra,sp
 630:	00120213          	add	tp,tp,1 # 1 <_start+0x1>
 634:	00200293          	li	t0,2
 638:	fc521ee3          	bne	tp,t0,614 <test_23+0x8>
 63c:	0fff13b7          	lui	t2,0xfff1
 640:	fff3839b          	addw	t2,t2,-1 # fff0fff <begin_signature+0xffecfff>
 644:	08771063          	bne	a4,t2,6c4 <fail>

0000000000000648 <test_24>:
 648:	01800193          	li	gp,24
 64c:	000100b7          	lui	ra,0x10
 650:	f010809b          	addw	ra,ra,-255 # ff01 <begin_signature+0xbf01>
 654:	01009093          	sll	ra,ra,0x10
 658:	f0008093          	add	ra,ra,-256
 65c:	00106133          	or	sp,zero,ra
 660:	000103b7          	lui	t2,0x10
 664:	f013839b          	addw	t2,t2,-255 # ff01 <begin_signature+0xbf01>
 668:	01039393          	sll	t2,t2,0x10
 66c:	f0038393          	add	t2,t2,-256
 670:	04711a63          	bne	sp,t2,6c4 <fail>

0000000000000674 <test_25>:
 674:	01900193          	li	gp,25
 678:	00ff00b7          	lui	ra,0xff0
 67c:	0ff0809b          	addw	ra,ra,255 # ff00ff <begin_signature+0xfec0ff>
 680:	0000e133          	or	sp,ra,zero
 684:	00ff03b7          	lui	t2,0xff0
 688:	0ff3839b          	addw	t2,t2,255 # ff00ff <begin_signature+0xfec0ff>
 68c:	02711c63          	bne	sp,t2,6c4 <fail>

0000000000000690 <test_26>:
 690:	01a00193          	li	gp,26
 694:	000060b3          	or	ra,zero,zero
 698:	00000393          	li	t2,0
 69c:	02709463          	bne	ra,t2,6c4 <fail>

00000000000006a0 <test_27>:
 6a0:	01b00193          	li	gp,27
 6a4:	111110b7          	lui	ra,0x11111
 6a8:	1110809b          	addw	ra,ra,273 # 11111111 <_end+0x11110c9>
 6ac:	22222137          	lui	sp,0x22222
 6b0:	2221011b          	addw	sp,sp,546 # 22222222 <_end+0x122221da>
 6b4:	0020e033          	or	zero,ra,sp
 6b8:	00000393          	li	t2,0
 6bc:	00701463          	bne	zero,t2,6c4 <fail>
 6c0:	02301063          	bne	zero,gp,6e0 <pass>

00000000000006c4 <fail>:
 6c4:	0ff0000f          	fence
 6c8:	00018063          	beqz	gp,6c8 <fail+0x4>
 6cc:	00119193          	sll	gp,gp,0x1
 6d0:	0011e193          	or	gp,gp,1
 6d4:	05d00893          	li	a7,93
 6d8:	00018513          	mv	a0,gp
 6dc:	00000073          	ecall

00000000000006e0 <pass>:
 6e0:	0ff0000f          	fence
 6e4:	00100193          	li	gp,1
 6e8:	05d00893          	li	a7,93
 6ec:	00000513          	li	a0,0
 6f0:	00000073          	ecall
 6f4:	c0001073          	unimp
 6f8:	0000                	.2byte	0x0
 6fa:	0000                	.2byte	0x0
 6fc:	0000                	.2byte	0x0
 6fe:	0000                	.2byte	0x0
 700:	0000                	.2byte	0x0
 702:	0000                	.2byte	0x0
