
sd.out:     file format elf64-littleriscv


Disassembly of section .text.init:

0000000000000000 <_start>:
   0:	03c0006f          	j	3c <reset_vector>

0000000000000004 <trap_vector>:
   4:	34202f73          	csrr	t5,mcause
   8:	00800f93          	li	t6,8
   c:	03ff0263          	beq	t5,t6,30 <write_tohost>
  10:	00900f93          	li	t6,9
  14:	01ff0e63          	beq	t5,t6,30 <write_tohost>
  18:	00b00f93          	li	t6,11
  1c:	01ff0a63          	beq	t5,t6,30 <write_tohost>
  20:	34202f73          	csrr	t5,mcause
  24:	000f5463          	bgez	t5,2c <handle_exception>
  28:	0040006f          	j	2c <handle_exception>

000000000000002c <handle_exception>:
  2c:	5391e193          	or	gp,gp,1337

0000000000000030 <write_tohost>:
  30:	10000f17          	auipc	t5,0x10000
  34:	fc3f2823          	sw	gp,-48(t5) # 10000000 <tohost>
  38:	0000006f          	j	38 <write_tohost+0x8>

000000000000003c <reset_vector>:
  3c:	b0005073          	csrw	mcycle,0
  40:	b0205073          	csrw	minstret,0
  44:	00000093          	li	ra,0
  48:	00000113          	li	sp,0
  4c:	00000193          	li	gp,0
  50:	00000213          	li	tp,0
  54:	00000293          	li	t0,0
  58:	00000313          	li	t1,0
  5c:	00000393          	li	t2,0
  60:	00000413          	li	s0,0
  64:	00000493          	li	s1,0
  68:	00000513          	li	a0,0
  6c:	00000593          	li	a1,0
  70:	00000613          	li	a2,0
  74:	00000693          	li	a3,0
  78:	00000713          	li	a4,0
  7c:	00000793          	li	a5,0
  80:	00000813          	li	a6,0
  84:	00000893          	li	a7,0
  88:	00000913          	li	s2,0
  8c:	00000993          	li	s3,0
  90:	00000a13          	li	s4,0
  94:	00000a93          	li	s5,0
  98:	00000b13          	li	s6,0
  9c:	00000b93          	li	s7,0
  a0:	00000c13          	li	s8,0
  a4:	00000c93          	li	s9,0
  a8:	00000d13          	li	s10,0
  ac:	00000d93          	li	s11,0
  b0:	00000e13          	li	t3,0
  b4:	00000e93          	li	t4,0
  b8:	00000f13          	li	t5,0
  bc:	00000f93          	li	t6,0
  c0:	00000193          	li	gp,0
  c4:	00000297          	auipc	t0,0x0
  c8:	f4028293          	add	t0,t0,-192 # 4 <trap_vector>
  cc:	30529073          	csrw	mtvec,t0
  d0:	30005073          	csrw	mstatus,0
  d4:	00000297          	auipc	t0,0x0
  d8:	01428293          	add	t0,t0,20 # e8 <test_2>
  dc:	34129073          	csrw	mepc,t0
  e0:	f1402573          	csrr	a0,mhartid
  e4:	30200073          	mret

00000000000000e8 <test_2>:
  e8:	00200193          	li	gp,2
  ec:	00004097          	auipc	ra,0x4
  f0:	f1408093          	add	ra,ra,-236 # 4000 <begin_signature>
  f4:	00550137          	lui	sp,0x550
  f8:	0551011b          	addw	sp,sp,85 # 550055 <end_signature+0x54c005>
  fc:	01011113          	sll	sp,sp,0x10
 100:	05510113          	add	sp,sp,85
 104:	01111113          	sll	sp,sp,0x11
 108:	0aa10113          	add	sp,sp,170
 10c:	00000797          	auipc	a5,0x0
 110:	01478793          	add	a5,a5,20 # 120 <test_2+0x38>
 114:	0020b023          	sd	sp,0(ra)
 118:	0000b703          	ld	a4,0(ra)
 11c:	0080006f          	j	124 <test_2+0x3c>
 120:	00010713          	mv	a4,sp
 124:	005503b7          	lui	t2,0x550
 128:	0553839b          	addw	t2,t2,85 # 550055 <end_signature+0x54c005>
 12c:	01039393          	sll	t2,t2,0x10
 130:	05538393          	add	t2,t2,85
 134:	01139393          	sll	t2,t2,0x11
 138:	0aa38393          	add	t2,t2,170
 13c:	66771863          	bne	a4,t2,7ac <fail>

0000000000000140 <test_3>:
 140:	00300193          	li	gp,3
 144:	00004097          	auipc	ra,0x4
 148:	ebc08093          	add	ra,ra,-324 # 4000 <begin_signature>
 14c:	ffd50137          	lui	sp,0xffd50
 150:	0551011b          	addw	sp,sp,85 # ffffffffffd50055 <_end+0xffffffffefd5000d>
 154:	01011113          	sll	sp,sp,0x10
 158:	05510113          	add	sp,sp,85
 15c:	00d11113          	sll	sp,sp,0xd
 160:	00b10113          	add	sp,sp,11
 164:	00c11113          	sll	sp,sp,0xc
 168:	a0010113          	add	sp,sp,-1536
 16c:	00000797          	auipc	a5,0x0
 170:	01478793          	add	a5,a5,20 # 180 <test_3+0x40>
 174:	0020b423          	sd	sp,8(ra)
 178:	0080b703          	ld	a4,8(ra)
 17c:	0080006f          	j	184 <test_3+0x44>
 180:	00010713          	mv	a4,sp
 184:	ffd503b7          	lui	t2,0xffd50
 188:	0553839b          	addw	t2,t2,85 # ffffffffffd50055 <_end+0xffffffffefd5000d>
 18c:	01039393          	sll	t2,t2,0x10
 190:	05538393          	add	t2,t2,85
 194:	00d39393          	sll	t2,t2,0xd
 198:	00b38393          	add	t2,t2,11
 19c:	00c39393          	sll	t2,t2,0xc
 1a0:	a0038393          	add	t2,t2,-1536
 1a4:	60771463          	bne	a4,t2,7ac <fail>

00000000000001a8 <test_4>:
 1a8:	00400193          	li	gp,4
 1ac:	00004097          	auipc	ra,0x4
 1b0:	e5408093          	add	ra,ra,-428 # 4000 <begin_signature>
 1b4:	00550137          	lui	sp,0x550
 1b8:	0551011b          	addw	sp,sp,85 # 550055 <end_signature+0x54c005>
 1bc:	00d11113          	sll	sp,sp,0xd
 1c0:	00b10113          	add	sp,sp,11
 1c4:	00c11113          	sll	sp,sp,0xc
 1c8:	a0110113          	add	sp,sp,-1535
 1cc:	00c11113          	sll	sp,sp,0xc
 1d0:	aa010113          	add	sp,sp,-1376
 1d4:	00000797          	auipc	a5,0x0
 1d8:	01478793          	add	a5,a5,20 # 1e8 <test_4+0x40>
 1dc:	0020b823          	sd	sp,16(ra)
 1e0:	0100b703          	ld	a4,16(ra)
 1e4:	0080006f          	j	1ec <test_4+0x44>
 1e8:	00010713          	mv	a4,sp
 1ec:	005503b7          	lui	t2,0x550
 1f0:	0553839b          	addw	t2,t2,85 # 550055 <end_signature+0x54c005>
 1f4:	00d39393          	sll	t2,t2,0xd
 1f8:	00b38393          	add	t2,t2,11
 1fc:	00c39393          	sll	t2,t2,0xc
 200:	a0138393          	add	t2,t2,-1535
 204:	00c39393          	sll	t2,t2,0xc
 208:	aa038393          	add	t2,t2,-1376
 20c:	5a771063          	bne	a4,t2,7ac <fail>

0000000000000210 <test_5>:
 210:	00500193          	li	gp,5
 214:	00004097          	auipc	ra,0x4
 218:	dec08093          	add	ra,ra,-532 # 4000 <begin_signature>
 21c:	fffd0137          	lui	sp,0xfffd0
 220:	0551011b          	addw	sp,sp,85 # fffffffffffd0055 <_end+0xffffffffeffd000d>
 224:	01011113          	sll	sp,sp,0x10
 228:	05510113          	add	sp,sp,85
 22c:	01011113          	sll	sp,sp,0x10
 230:	05510113          	add	sp,sp,85
 234:	00d11113          	sll	sp,sp,0xd
 238:	00a10113          	add	sp,sp,10
 23c:	00000797          	auipc	a5,0x0
 240:	01478793          	add	a5,a5,20 # 250 <test_5+0x40>
 244:	0020bc23          	sd	sp,24(ra)
 248:	0180b703          	ld	a4,24(ra)
 24c:	0080006f          	j	254 <test_5+0x44>
 250:	00010713          	mv	a4,sp
 254:	fffd03b7          	lui	t2,0xfffd0
 258:	0553839b          	addw	t2,t2,85 # fffffffffffd0055 <_end+0xffffffffeffd000d>
 25c:	01039393          	sll	t2,t2,0x10
 260:	05538393          	add	t2,t2,85
 264:	01039393          	sll	t2,t2,0x10
 268:	05538393          	add	t2,t2,85
 26c:	00d39393          	sll	t2,t2,0xd
 270:	00a38393          	add	t2,t2,10
 274:	52771c63          	bne	a4,t2,7ac <fail>

0000000000000278 <test_6>:
 278:	00600193          	li	gp,6
 27c:	00004097          	auipc	ra,0x4
 280:	dbc08093          	add	ra,ra,-580 # 4038 <tdat8>
 284:	00550137          	lui	sp,0x550
 288:	0551011b          	addw	sp,sp,85 # 550055 <end_signature+0x54c005>
 28c:	01011113          	sll	sp,sp,0x10
 290:	05510113          	add	sp,sp,85
 294:	01111113          	sll	sp,sp,0x11
 298:	0aa10113          	add	sp,sp,170
 29c:	00000797          	auipc	a5,0x0
 2a0:	01478793          	add	a5,a5,20 # 2b0 <test_6+0x38>
 2a4:	fe20b423          	sd	sp,-24(ra)
 2a8:	fe80b703          	ld	a4,-24(ra)
 2ac:	0080006f          	j	2b4 <test_6+0x3c>
 2b0:	00010713          	mv	a4,sp
 2b4:	005503b7          	lui	t2,0x550
 2b8:	0553839b          	addw	t2,t2,85 # 550055 <end_signature+0x54c005>
 2bc:	01039393          	sll	t2,t2,0x10
 2c0:	05538393          	add	t2,t2,85
 2c4:	01139393          	sll	t2,t2,0x11
 2c8:	0aa38393          	add	t2,t2,170
 2cc:	4e771063          	bne	a4,t2,7ac <fail>

00000000000002d0 <test_7>:
 2d0:	00700193          	li	gp,7
 2d4:	00004097          	auipc	ra,0x4
 2d8:	d6408093          	add	ra,ra,-668 # 4038 <tdat8>
 2dc:	ffd50137          	lui	sp,0xffd50
 2e0:	0551011b          	addw	sp,sp,85 # ffffffffffd50055 <_end+0xffffffffefd5000d>
 2e4:	01011113          	sll	sp,sp,0x10
 2e8:	05510113          	add	sp,sp,85
 2ec:	00d11113          	sll	sp,sp,0xd
 2f0:	00b10113          	add	sp,sp,11
 2f4:	00c11113          	sll	sp,sp,0xc
 2f8:	a0010113          	add	sp,sp,-1536
 2fc:	00000797          	auipc	a5,0x0
 300:	01478793          	add	a5,a5,20 # 310 <test_7+0x40>
 304:	fe20b823          	sd	sp,-16(ra)
 308:	ff00b703          	ld	a4,-16(ra)
 30c:	0080006f          	j	314 <test_7+0x44>
 310:	00010713          	mv	a4,sp
 314:	ffd503b7          	lui	t2,0xffd50
 318:	0553839b          	addw	t2,t2,85 # ffffffffffd50055 <_end+0xffffffffefd5000d>
 31c:	01039393          	sll	t2,t2,0x10
 320:	05538393          	add	t2,t2,85
 324:	00d39393          	sll	t2,t2,0xd
 328:	00b38393          	add	t2,t2,11
 32c:	00c39393          	sll	t2,t2,0xc
 330:	a0038393          	add	t2,t2,-1536
 334:	46771c63          	bne	a4,t2,7ac <fail>

0000000000000338 <test_8>:
 338:	00800193          	li	gp,8
 33c:	00004097          	auipc	ra,0x4
 340:	cfc08093          	add	ra,ra,-772 # 4038 <tdat8>
 344:	00550137          	lui	sp,0x550
 348:	0551011b          	addw	sp,sp,85 # 550055 <end_signature+0x54c005>
 34c:	00d11113          	sll	sp,sp,0xd
 350:	00b10113          	add	sp,sp,11
 354:	00c11113          	sll	sp,sp,0xc
 358:	a0110113          	add	sp,sp,-1535
 35c:	00c11113          	sll	sp,sp,0xc
 360:	aa010113          	add	sp,sp,-1376
 364:	00000797          	auipc	a5,0x0
 368:	01478793          	add	a5,a5,20 # 378 <test_8+0x40>
 36c:	fe20bc23          	sd	sp,-8(ra)
 370:	ff80b703          	ld	a4,-8(ra)
 374:	0080006f          	j	37c <test_8+0x44>
 378:	00010713          	mv	a4,sp
 37c:	005503b7          	lui	t2,0x550
 380:	0553839b          	addw	t2,t2,85 # 550055 <end_signature+0x54c005>
 384:	00d39393          	sll	t2,t2,0xd
 388:	00b38393          	add	t2,t2,11
 38c:	00c39393          	sll	t2,t2,0xc
 390:	a0138393          	add	t2,t2,-1535
 394:	00c39393          	sll	t2,t2,0xc
 398:	aa038393          	add	t2,t2,-1376
 39c:	40771863          	bne	a4,t2,7ac <fail>

00000000000003a0 <test_9>:
 3a0:	00900193          	li	gp,9
 3a4:	00004097          	auipc	ra,0x4
 3a8:	c9408093          	add	ra,ra,-876 # 4038 <tdat8>
 3ac:	fffd0137          	lui	sp,0xfffd0
 3b0:	0551011b          	addw	sp,sp,85 # fffffffffffd0055 <_end+0xffffffffeffd000d>
 3b4:	01011113          	sll	sp,sp,0x10
 3b8:	05510113          	add	sp,sp,85
 3bc:	01011113          	sll	sp,sp,0x10
 3c0:	05510113          	add	sp,sp,85
 3c4:	00d11113          	sll	sp,sp,0xd
 3c8:	00a10113          	add	sp,sp,10
 3cc:	00000797          	auipc	a5,0x0
 3d0:	01478793          	add	a5,a5,20 # 3e0 <test_9+0x40>
 3d4:	0020b023          	sd	sp,0(ra)
 3d8:	0000b703          	ld	a4,0(ra)
 3dc:	0080006f          	j	3e4 <test_9+0x44>
 3e0:	00010713          	mv	a4,sp
 3e4:	fffd03b7          	lui	t2,0xfffd0
 3e8:	0553839b          	addw	t2,t2,85 # fffffffffffd0055 <_end+0xffffffffeffd000d>
 3ec:	01039393          	sll	t2,t2,0x10
 3f0:	05538393          	add	t2,t2,85
 3f4:	01039393          	sll	t2,t2,0x10
 3f8:	05538393          	add	t2,t2,85
 3fc:	00d39393          	sll	t2,t2,0xd
 400:	00a38393          	add	t2,t2,10
 404:	3a771463          	bne	a4,t2,7ac <fail>

0000000000000408 <test_10>:
 408:	00a00193          	li	gp,10
 40c:	00004097          	auipc	ra,0x4
 410:	c3408093          	add	ra,ra,-972 # 4040 <tdat9>
 414:	00247137          	lui	sp,0x247
 418:	8ad1011b          	addw	sp,sp,-1875 # 2468ad <end_signature+0x24285d>
 41c:	00e11113          	sll	sp,sp,0xe
 420:	c0910113          	add	sp,sp,-1015
 424:	00d11113          	sll	sp,sp,0xd
 428:	34510113          	add	sp,sp,837
 42c:	00c11113          	sll	sp,sp,0xc
 430:	67810113          	add	sp,sp,1656
 434:	fe008213          	add	tp,ra,-32
 438:	02223023          	sd	sp,32(tp) # 20 <trap_vector+0x1c>
 43c:	0000b283          	ld	t0,0(ra)
 440:	002473b7          	lui	t2,0x247
 444:	8ad3839b          	addw	t2,t2,-1875 # 2468ad <end_signature+0x24285d>
 448:	00e39393          	sll	t2,t2,0xe
 44c:	c0938393          	add	t2,t2,-1015
 450:	00d39393          	sll	t2,t2,0xd
 454:	34538393          	add	t2,t2,837
 458:	00c39393          	sll	t2,t2,0xc
 45c:	67838393          	add	t2,t2,1656
 460:	34729663          	bne	t0,t2,7ac <fail>

0000000000000464 <test_11>:
 464:	00b00193          	li	gp,11
 468:	00004097          	auipc	ra,0x4
 46c:	bd808093          	add	ra,ra,-1064 # 4040 <tdat9>
 470:	00b04137          	lui	sp,0xb04
 474:	2611011b          	addw	sp,sp,609 # b04261 <end_signature+0xb00211>
 478:	00c11113          	sll	sp,sp,0xc
 47c:	30b10113          	add	sp,sp,779
 480:	00f11113          	sll	sp,sp,0xf
 484:	21310113          	add	sp,sp,531
 488:	00c11113          	sll	sp,sp,0xc
 48c:	09810113          	add	sp,sp,152
 490:	ffd08093          	add	ra,ra,-3
 494:	0020b5a3          	sd	sp,11(ra)
 498:	00004217          	auipc	tp,0x4
 49c:	bb020213          	add	tp,tp,-1104 # 4048 <tdat10>
 4a0:	00023283          	ld	t0,0(tp) # 0 <_start>
 4a4:	00b043b7          	lui	t2,0xb04
 4a8:	2613839b          	addw	t2,t2,609 # b04261 <end_signature+0xb00211>
 4ac:	00c39393          	sll	t2,t2,0xc
 4b0:	30b38393          	add	t2,t2,779
 4b4:	00f39393          	sll	t2,t2,0xf
 4b8:	21338393          	add	t2,t2,531
 4bc:	00c39393          	sll	t2,t2,0xc
 4c0:	09838393          	add	t2,t2,152
 4c4:	2e729463          	bne	t0,t2,7ac <fail>

00000000000004c8 <test_12>:
 4c8:	00c00193          	li	gp,12
 4cc:	00000213          	li	tp,0
 4d0:	0abbd0b7          	lui	ra,0xabbd
 4d4:	cdd0809b          	addw	ra,ra,-803 # abbccdd <end_signature+0xabb8c8d>
 4d8:	00004117          	auipc	sp,0x4
 4dc:	b2810113          	add	sp,sp,-1240 # 4000 <begin_signature>
 4e0:	00113023          	sd	ra,0(sp)
 4e4:	00013703          	ld	a4,0(sp)
 4e8:	0abbd3b7          	lui	t2,0xabbd
 4ec:	cdd3839b          	addw	t2,t2,-803 # abbccdd <end_signature+0xabb8c8d>
 4f0:	2a771e63          	bne	a4,t2,7ac <fail>
 4f4:	00120213          	add	tp,tp,1 # 1 <_start+0x1>
 4f8:	00200293          	li	t0,2
 4fc:	fc521ae3          	bne	tp,t0,4d0 <test_12+0x8>

0000000000000500 <test_13>:
 500:	00d00193          	li	gp,13
 504:	00000213          	li	tp,0
 508:	0aabc0b7          	lui	ra,0xaabc
 50c:	ccd0809b          	addw	ra,ra,-819 # aabbccd <end_signature+0xaab7c7d>
 510:	00004117          	auipc	sp,0x4
 514:	af010113          	add	sp,sp,-1296 # 4000 <begin_signature>
 518:	00000013          	nop
 51c:	00113423          	sd	ra,8(sp)
 520:	00813703          	ld	a4,8(sp)
 524:	0aabc3b7          	lui	t2,0xaabc
 528:	ccd3839b          	addw	t2,t2,-819 # aabbccd <end_signature+0xaab7c7d>
 52c:	28771063          	bne	a4,t2,7ac <fail>
 530:	00120213          	add	tp,tp,1 # 1 <_start+0x1>
 534:	00200293          	li	t0,2
 538:	fc5218e3          	bne	tp,t0,508 <test_13+0x8>

000000000000053c <test_14>:
 53c:	00e00193          	li	gp,14
 540:	00000213          	li	tp,0
 544:	0daac0b7          	lui	ra,0xdaac
 548:	bcc0809b          	addw	ra,ra,-1076 # daabbcc <end_signature+0xdaa7b7c>
 54c:	00004117          	auipc	sp,0x4
 550:	ab410113          	add	sp,sp,-1356 # 4000 <begin_signature>
 554:	00000013          	nop
 558:	00000013          	nop
 55c:	00113823          	sd	ra,16(sp)
 560:	01013703          	ld	a4,16(sp)
 564:	0daac3b7          	lui	t2,0xdaac
 568:	bcc3839b          	addw	t2,t2,-1076 # daabbcc <end_signature+0xdaa7b7c>
 56c:	24771063          	bne	a4,t2,7ac <fail>
 570:	00120213          	add	tp,tp,1 # 1 <_start+0x1>
 574:	00200293          	li	t0,2
 578:	fc5216e3          	bne	tp,t0,544 <test_14+0x8>

000000000000057c <test_15>:
 57c:	00f00193          	li	gp,15
 580:	00000213          	li	tp,0
 584:	0ddab0b7          	lui	ra,0xddab
 588:	bbc0809b          	addw	ra,ra,-1092 # ddaabbc <end_signature+0xdda6b6c>
 58c:	00000013          	nop
 590:	00004117          	auipc	sp,0x4
 594:	a7010113          	add	sp,sp,-1424 # 4000 <begin_signature>
 598:	00113c23          	sd	ra,24(sp)
 59c:	01813703          	ld	a4,24(sp)
 5a0:	0ddab3b7          	lui	t2,0xddab
 5a4:	bbc3839b          	addw	t2,t2,-1092 # ddaabbc <end_signature+0xdda6b6c>
 5a8:	20771263          	bne	a4,t2,7ac <fail>
 5ac:	00120213          	add	tp,tp,1 # 1 <_start+0x1>
 5b0:	00200293          	li	t0,2
 5b4:	fc5218e3          	bne	tp,t0,584 <test_15+0x8>

00000000000005b8 <test_16>:
 5b8:	01000193          	li	gp,16
 5bc:	00000213          	li	tp,0
 5c0:	0cddb0b7          	lui	ra,0xcddb
 5c4:	abb0809b          	addw	ra,ra,-1349 # cddaabb <end_signature+0xcdd6a6b>
 5c8:	00000013          	nop
 5cc:	00004117          	auipc	sp,0x4
 5d0:	a3410113          	add	sp,sp,-1484 # 4000 <begin_signature>
 5d4:	00000013          	nop
 5d8:	02113023          	sd	ra,32(sp)
 5dc:	02013703          	ld	a4,32(sp)
 5e0:	0cddb3b7          	lui	t2,0xcddb
 5e4:	abb3839b          	addw	t2,t2,-1349 # cddaabb <end_signature+0xcdd6a6b>
 5e8:	1c771263          	bne	a4,t2,7ac <fail>
 5ec:	00120213          	add	tp,tp,1 # 1 <_start+0x1>
 5f0:	00200293          	li	t0,2
 5f4:	fc5216e3          	bne	tp,t0,5c0 <test_16+0x8>

00000000000005f8 <test_17>:
 5f8:	01100193          	li	gp,17
 5fc:	00000213          	li	tp,0
 600:	0ccde0b7          	lui	ra,0xccde
 604:	aab0809b          	addw	ra,ra,-1365 # ccddaab <end_signature+0xccd9a5b>
 608:	00000013          	nop
 60c:	00000013          	nop
 610:	00004117          	auipc	sp,0x4
 614:	9f010113          	add	sp,sp,-1552 # 4000 <begin_signature>
 618:	02113423          	sd	ra,40(sp)
 61c:	02813703          	ld	a4,40(sp)
 620:	0ccde3b7          	lui	t2,0xccde
 624:	aab3839b          	addw	t2,t2,-1365 # ccddaab <end_signature+0xccd9a5b>
 628:	18771263          	bne	a4,t2,7ac <fail>
 62c:	00120213          	add	tp,tp,1 # 1 <_start+0x1>
 630:	00200293          	li	t0,2
 634:	fc5216e3          	bne	tp,t0,600 <test_17+0x8>

0000000000000638 <test_18>:
 638:	01200193          	li	gp,18
 63c:	00000213          	li	tp,0
 640:	00004117          	auipc	sp,0x4
 644:	9c010113          	add	sp,sp,-1600 # 4000 <begin_signature>
 648:	001120b7          	lui	ra,0x112
 64c:	2330809b          	addw	ra,ra,563 # 112233 <end_signature+0x10e1e3>
 650:	00113023          	sd	ra,0(sp)
 654:	00013703          	ld	a4,0(sp)
 658:	001123b7          	lui	t2,0x112
 65c:	2333839b          	addw	t2,t2,563 # 112233 <end_signature+0x10e1e3>
 660:	14771663          	bne	a4,t2,7ac <fail>
 664:	00120213          	add	tp,tp,1 # 1 <_start+0x1>
 668:	00200293          	li	t0,2
 66c:	fc521ae3          	bne	tp,t0,640 <test_18+0x8>

0000000000000670 <test_19>:
 670:	01300193          	li	gp,19
 674:	00000213          	li	tp,0
 678:	00004117          	auipc	sp,0x4
 67c:	98810113          	add	sp,sp,-1656 # 4000 <begin_signature>
 680:	300110b7          	lui	ra,0x30011
 684:	2230809b          	addw	ra,ra,547 # 30011223 <_end+0x200111db>
 688:	00000013          	nop
 68c:	00113423          	sd	ra,8(sp)
 690:	00813703          	ld	a4,8(sp)
 694:	300113b7          	lui	t2,0x30011
 698:	2233839b          	addw	t2,t2,547 # 30011223 <_end+0x200111db>
 69c:	10771863          	bne	a4,t2,7ac <fail>
 6a0:	00120213          	add	tp,tp,1 # 1 <_start+0x1>
 6a4:	00200293          	li	t0,2
 6a8:	fc5218e3          	bne	tp,t0,678 <test_19+0x8>

00000000000006ac <test_20>:
 6ac:	01400193          	li	gp,20
 6b0:	00000213          	li	tp,0
 6b4:	00004117          	auipc	sp,0x4
 6b8:	94c10113          	add	sp,sp,-1716 # 4000 <begin_signature>
 6bc:	330010b7          	lui	ra,0x33001
 6c0:	1220809b          	addw	ra,ra,290 # 33001122 <_end+0x230010da>
 6c4:	00000013          	nop
 6c8:	00000013          	nop
 6cc:	00113823          	sd	ra,16(sp)
 6d0:	01013703          	ld	a4,16(sp)
 6d4:	330013b7          	lui	t2,0x33001
 6d8:	1223839b          	addw	t2,t2,290 # 33001122 <_end+0x230010da>
 6dc:	0c771863          	bne	a4,t2,7ac <fail>
 6e0:	00120213          	add	tp,tp,1 # 1 <_start+0x1>
 6e4:	00200293          	li	t0,2
 6e8:	fc5216e3          	bne	tp,t0,6b4 <test_20+0x8>

00000000000006ec <test_21>:
 6ec:	01500193          	li	gp,21
 6f0:	00000213          	li	tp,0
 6f4:	00004117          	auipc	sp,0x4
 6f8:	90c10113          	add	sp,sp,-1780 # 4000 <begin_signature>
 6fc:	00000013          	nop
 700:	233000b7          	lui	ra,0x23300
 704:	1120809b          	addw	ra,ra,274 # 23300112 <_end+0x133000ca>
 708:	00113c23          	sd	ra,24(sp)
 70c:	01813703          	ld	a4,24(sp)
 710:	233003b7          	lui	t2,0x23300
 714:	1123839b          	addw	t2,t2,274 # 23300112 <_end+0x133000ca>
 718:	08771a63          	bne	a4,t2,7ac <fail>
 71c:	00120213          	add	tp,tp,1 # 1 <_start+0x1>
 720:	00200293          	li	t0,2
 724:	fc5218e3          	bne	tp,t0,6f4 <test_21+0x8>

0000000000000728 <test_22>:
 728:	01600193          	li	gp,22
 72c:	00000213          	li	tp,0
 730:	00004117          	auipc	sp,0x4
 734:	8d010113          	add	sp,sp,-1840 # 4000 <begin_signature>
 738:	00000013          	nop
 73c:	223300b7          	lui	ra,0x22330
 740:	0110809b          	addw	ra,ra,17 # 22330011 <_end+0x1232ffc9>
 744:	00000013          	nop
 748:	02113023          	sd	ra,32(sp)
 74c:	02013703          	ld	a4,32(sp)
 750:	223303b7          	lui	t2,0x22330
 754:	0113839b          	addw	t2,t2,17 # 22330011 <_end+0x1232ffc9>
 758:	04771a63          	bne	a4,t2,7ac <fail>
 75c:	00120213          	add	tp,tp,1 # 1 <_start+0x1>
 760:	00200293          	li	t0,2
 764:	fc5216e3          	bne	tp,t0,730 <test_22+0x8>

0000000000000768 <test_23>:
 768:	01700193          	li	gp,23
 76c:	00000213          	li	tp,0
 770:	00004117          	auipc	sp,0x4
 774:	89010113          	add	sp,sp,-1904 # 4000 <begin_signature>
 778:	00000013          	nop
 77c:	00000013          	nop
 780:	122330b7          	lui	ra,0x12233
 784:	0010809b          	addw	ra,ra,1 # 12233001 <_end+0x2232fb9>
 788:	02113423          	sd	ra,40(sp)
 78c:	02813703          	ld	a4,40(sp)
 790:	122333b7          	lui	t2,0x12233
 794:	0013839b          	addw	t2,t2,1 # 12233001 <_end+0x2232fb9>
 798:	00771a63          	bne	a4,t2,7ac <fail>
 79c:	00120213          	add	tp,tp,1 # 1 <_start+0x1>
 7a0:	00200293          	li	t0,2
 7a4:	fc5216e3          	bne	tp,t0,770 <test_23+0x8>
 7a8:	02301063          	bne	zero,gp,7c8 <pass>

00000000000007ac <fail>:
 7ac:	0ff0000f          	fence
 7b0:	00018063          	beqz	gp,7b0 <fail+0x4>
 7b4:	00119193          	sll	gp,gp,0x1
 7b8:	0011e193          	or	gp,gp,1
 7bc:	05d00893          	li	a7,93
 7c0:	00018513          	mv	a0,gp
 7c4:	00000073          	ecall

00000000000007c8 <pass>:
 7c8:	0ff0000f          	fence
 7cc:	00100193          	li	gp,1
 7d0:	05d00893          	li	a7,93
 7d4:	00000513          	li	a0,0
 7d8:	00000073          	ecall
 7dc:	c0001073          	unimp
 7e0:	0000                	.2byte	0x0
 7e2:	0000                	.2byte	0x0
 7e4:	0000                	.2byte	0x0
 7e6:	0000                	.2byte	0x0
 7e8:	0000                	.2byte	0x0
 7ea:	0000                	.2byte	0x0
 7ec:	0000                	.2byte	0x0
 7ee:	0000                	.2byte	0x0
 7f0:	0000                	.2byte	0x0
 7f2:	0000                	.2byte	0x0
 7f4:	0000                	.2byte	0x0
 7f6:	0000                	.2byte	0x0
 7f8:	0000                	.2byte	0x0
 7fa:	0000                	.2byte	0x0
 7fc:	0000                	.2byte	0x0
 7fe:	0000                	.2byte	0x0
 800:	0000                	.2byte	0x0
 802:	0000                	.2byte	0x0
