
sll.out:     file format elf64-littleriscv


Disassembly of section .text.init:

0000000000000000 <_start>:
   0:	03c0006f          	j	3c <reset_vector>

0000000000000004 <trap_vector>:
   4:	34202f73          	csrr	t5,mcause
   8:	00800f93          	li	t6,8
   c:	03ff0263          	beq	t5,t6,30 <write_tohost>
  10:	00900f93          	li	t6,9
  14:	01ff0e63          	beq	t5,t6,30 <write_tohost>
  18:	00b00f93          	li	t6,11
  1c:	01ff0a63          	beq	t5,t6,30 <write_tohost>
  20:	34202f73          	csrr	t5,mcause
  24:	000f5463          	bgez	t5,2c <handle_exception>
  28:	0040006f          	j	2c <handle_exception>

000000000000002c <handle_exception>:
  2c:	5391e193          	or	gp,gp,1337

0000000000000030 <write_tohost>:
  30:	10000f17          	auipc	t5,0x10000
  34:	fc3f2823          	sw	gp,-48(t5) # 10000000 <tohost>
  38:	0000006f          	j	38 <write_tohost+0x8>

000000000000003c <reset_vector>:
  3c:	b0005073          	csrw	mcycle,0
  40:	b0205073          	csrw	minstret,0
  44:	00000093          	li	ra,0
  48:	00000113          	li	sp,0
  4c:	00000193          	li	gp,0
  50:	00000213          	li	tp,0
  54:	00000293          	li	t0,0
  58:	00000313          	li	t1,0
  5c:	00000393          	li	t2,0
  60:	00000413          	li	s0,0
  64:	00000493          	li	s1,0
  68:	00000513          	li	a0,0
  6c:	00000593          	li	a1,0
  70:	00000613          	li	a2,0
  74:	00000693          	li	a3,0
  78:	00000713          	li	a4,0
  7c:	00000793          	li	a5,0
  80:	00000813          	li	a6,0
  84:	00000893          	li	a7,0
  88:	00000913          	li	s2,0
  8c:	00000993          	li	s3,0
  90:	00000a13          	li	s4,0
  94:	00000a93          	li	s5,0
  98:	00000b13          	li	s6,0
  9c:	00000b93          	li	s7,0
  a0:	00000c13          	li	s8,0
  a4:	00000c93          	li	s9,0
  a8:	00000d13          	li	s10,0
  ac:	00000d93          	li	s11,0
  b0:	00000e13          	li	t3,0
  b4:	00000e93          	li	t4,0
  b8:	00000f13          	li	t5,0
  bc:	00000f93          	li	t6,0
  c0:	00000193          	li	gp,0
  c4:	00000297          	auipc	t0,0x0
  c8:	f4028293          	add	t0,t0,-192 # 4 <trap_vector>
  cc:	30529073          	csrw	mtvec,t0
  d0:	30005073          	csrw	mstatus,0
  d4:	00000297          	auipc	t0,0x0
  d8:	01428293          	add	t0,t0,20 # e8 <test_2>
  dc:	34129073          	csrw	mepc,t0
  e0:	f1402573          	csrr	a0,mhartid
  e4:	30200073          	mret

00000000000000e8 <test_2>:
  e8:	00200193          	li	gp,2
  ec:	00100093          	li	ra,1
  f0:	00000113          	li	sp,0
  f4:	00209733          	sll	a4,ra,sp
  f8:	00100393          	li	t2,1
  fc:	5e771c63          	bne	a4,t2,6f4 <fail>

0000000000000100 <test_3>:
 100:	00300193          	li	gp,3
 104:	00100093          	li	ra,1
 108:	00100113          	li	sp,1
 10c:	00209733          	sll	a4,ra,sp
 110:	00200393          	li	t2,2
 114:	5e771063          	bne	a4,t2,6f4 <fail>

0000000000000118 <test_4>:
 118:	00400193          	li	gp,4
 11c:	00100093          	li	ra,1
 120:	00700113          	li	sp,7
 124:	00209733          	sll	a4,ra,sp
 128:	08000393          	li	t2,128
 12c:	5c771463          	bne	a4,t2,6f4 <fail>

0000000000000130 <test_5>:
 130:	00500193          	li	gp,5
 134:	00100093          	li	ra,1
 138:	00e00113          	li	sp,14
 13c:	00209733          	sll	a4,ra,sp
 140:	000043b7          	lui	t2,0x4
 144:	5a771863          	bne	a4,t2,6f4 <fail>

0000000000000148 <test_6>:
 148:	00600193          	li	gp,6
 14c:	00100093          	li	ra,1
 150:	01f00113          	li	sp,31
 154:	00209733          	sll	a4,ra,sp
 158:	0010039b          	addw	t2,zero,1
 15c:	01f39393          	sll	t2,t2,0x1f
 160:	58771a63          	bne	a4,t2,6f4 <fail>

0000000000000164 <test_7>:
 164:	00700193          	li	gp,7
 168:	fff00093          	li	ra,-1
 16c:	00000113          	li	sp,0
 170:	00209733          	sll	a4,ra,sp
 174:	fff00393          	li	t2,-1
 178:	56771e63          	bne	a4,t2,6f4 <fail>

000000000000017c <test_8>:
 17c:	00800193          	li	gp,8
 180:	fff00093          	li	ra,-1
 184:	00100113          	li	sp,1
 188:	00209733          	sll	a4,ra,sp
 18c:	ffe00393          	li	t2,-2
 190:	56771263          	bne	a4,t2,6f4 <fail>

0000000000000194 <test_9>:
 194:	00900193          	li	gp,9
 198:	fff00093          	li	ra,-1
 19c:	00700113          	li	sp,7
 1a0:	00209733          	sll	a4,ra,sp
 1a4:	f8000393          	li	t2,-128
 1a8:	54771663          	bne	a4,t2,6f4 <fail>

00000000000001ac <test_10>:
 1ac:	00a00193          	li	gp,10
 1b0:	fff00093          	li	ra,-1
 1b4:	00e00113          	li	sp,14
 1b8:	00209733          	sll	a4,ra,sp
 1bc:	ffffc3b7          	lui	t2,0xffffc
 1c0:	52771a63          	bne	a4,t2,6f4 <fail>

00000000000001c4 <test_11>:
 1c4:	00b00193          	li	gp,11
 1c8:	fff00093          	li	ra,-1
 1cc:	01f00113          	li	sp,31
 1d0:	00209733          	sll	a4,ra,sp
 1d4:	800003b7          	lui	t2,0x80000
 1d8:	50771e63          	bne	a4,t2,6f4 <fail>

00000000000001dc <test_12>:
 1dc:	00c00193          	li	gp,12
 1e0:	212120b7          	lui	ra,0x21212
 1e4:	1210809b          	addw	ra,ra,289 # 21212121 <_end+0x112120d9>
 1e8:	00000113          	li	sp,0
 1ec:	00209733          	sll	a4,ra,sp
 1f0:	212123b7          	lui	t2,0x21212
 1f4:	1213839b          	addw	t2,t2,289 # 21212121 <_end+0x112120d9>
 1f8:	4e771e63          	bne	a4,t2,6f4 <fail>

00000000000001fc <test_13>:
 1fc:	00d00193          	li	gp,13
 200:	212120b7          	lui	ra,0x21212
 204:	1210809b          	addw	ra,ra,289 # 21212121 <_end+0x112120d9>
 208:	00100113          	li	sp,1
 20c:	00209733          	sll	a4,ra,sp
 210:	424243b7          	lui	t2,0x42424
 214:	2423839b          	addw	t2,t2,578 # 42424242 <_end+0x324241fa>
 218:	4c771e63          	bne	a4,t2,6f4 <fail>

000000000000021c <test_14>:
 21c:	00e00193          	li	gp,14
 220:	212120b7          	lui	ra,0x21212
 224:	1210809b          	addw	ra,ra,289 # 21212121 <_end+0x112120d9>
 228:	00700113          	li	sp,7
 22c:	00209733          	sll	a4,ra,sp
 230:	010913b7          	lui	t2,0x1091
 234:	9093839b          	addw	t2,t2,-1783 # 1090909 <begin_signature+0x108c909>
 238:	00c39393          	sll	t2,t2,0xc
 23c:	08038393          	add	t2,t2,128
 240:	4a771a63          	bne	a4,t2,6f4 <fail>

0000000000000244 <test_15>:
 244:	00f00193          	li	gp,15
 248:	212120b7          	lui	ra,0x21212
 24c:	1210809b          	addw	ra,ra,289 # 21212121 <_end+0x112120d9>
 250:	00e00113          	li	sp,14
 254:	00209733          	sll	a4,ra,sp
 258:	212123b7          	lui	t2,0x21212
 25c:	1213839b          	addw	t2,t2,289 # 21212121 <_end+0x112120d9>
 260:	00e39393          	sll	t2,t2,0xe
 264:	48771863          	bne	a4,t2,6f4 <fail>

0000000000000268 <test_16>:
 268:	01000193          	li	gp,16
 26c:	212120b7          	lui	ra,0x21212
 270:	1210809b          	addw	ra,ra,289 # 21212121 <_end+0x112120d9>
 274:	01f00113          	li	sp,31
 278:	00209733          	sll	a4,ra,sp
 27c:	212123b7          	lui	t2,0x21212
 280:	1213839b          	addw	t2,t2,289 # 21212121 <_end+0x112120d9>
 284:	01f39393          	sll	t2,t2,0x1f
 288:	46771663          	bne	a4,t2,6f4 <fail>

000000000000028c <test_17>:
 28c:	01100193          	li	gp,17
 290:	212120b7          	lui	ra,0x21212
 294:	1210809b          	addw	ra,ra,289 # 21212121 <_end+0x112120d9>
 298:	fc000113          	li	sp,-64
 29c:	00209733          	sll	a4,ra,sp
 2a0:	212123b7          	lui	t2,0x21212
 2a4:	1213839b          	addw	t2,t2,289 # 21212121 <_end+0x112120d9>
 2a8:	44771663          	bne	a4,t2,6f4 <fail>

00000000000002ac <test_18>:
 2ac:	01200193          	li	gp,18
 2b0:	212120b7          	lui	ra,0x21212
 2b4:	1210809b          	addw	ra,ra,289 # 21212121 <_end+0x112120d9>
 2b8:	fc100113          	li	sp,-63
 2bc:	00209733          	sll	a4,ra,sp
 2c0:	424243b7          	lui	t2,0x42424
 2c4:	2423839b          	addw	t2,t2,578 # 42424242 <_end+0x324241fa>
 2c8:	42771663          	bne	a4,t2,6f4 <fail>

00000000000002cc <test_19>:
 2cc:	01300193          	li	gp,19
 2d0:	212120b7          	lui	ra,0x21212
 2d4:	1210809b          	addw	ra,ra,289 # 21212121 <_end+0x112120d9>
 2d8:	fc700113          	li	sp,-57
 2dc:	00209733          	sll	a4,ra,sp
 2e0:	010913b7          	lui	t2,0x1091
 2e4:	9093839b          	addw	t2,t2,-1783 # 1090909 <begin_signature+0x108c909>
 2e8:	00c39393          	sll	t2,t2,0xc
 2ec:	08038393          	add	t2,t2,128
 2f0:	40771263          	bne	a4,t2,6f4 <fail>

00000000000002f4 <test_20>:
 2f4:	01400193          	li	gp,20
 2f8:	212120b7          	lui	ra,0x21212
 2fc:	1210809b          	addw	ra,ra,289 # 21212121 <_end+0x112120d9>
 300:	fce00113          	li	sp,-50
 304:	00209733          	sll	a4,ra,sp
 308:	212123b7          	lui	t2,0x21212
 30c:	1213839b          	addw	t2,t2,289 # 21212121 <_end+0x112120d9>
 310:	00e39393          	sll	t2,t2,0xe
 314:	3e771063          	bne	a4,t2,6f4 <fail>

0000000000000318 <test_21>:
 318:	01500193          	li	gp,21
 31c:	212120b7          	lui	ra,0x21212
 320:	1210809b          	addw	ra,ra,289 # 21212121 <_end+0x112120d9>
 324:	fff00113          	li	sp,-1
 328:	00209733          	sll	a4,ra,sp
 32c:	fff0039b          	addw	t2,zero,-1
 330:	03f39393          	sll	t2,t2,0x3f
 334:	3c771063          	bne	a4,t2,6f4 <fail>

0000000000000338 <test_50>:
 338:	03200193          	li	gp,50
 33c:	00100093          	li	ra,1
 340:	03f00113          	li	sp,63
 344:	00209733          	sll	a4,ra,sp
 348:	fff0039b          	addw	t2,zero,-1
 34c:	03f39393          	sll	t2,t2,0x3f
 350:	3a771263          	bne	a4,t2,6f4 <fail>

0000000000000354 <test_51>:
 354:	03300193          	li	gp,51
 358:	fff00093          	li	ra,-1
 35c:	02700113          	li	sp,39
 360:	00209733          	sll	a4,ra,sp
 364:	fff0039b          	addw	t2,zero,-1
 368:	02739393          	sll	t2,t2,0x27
 36c:	38771463          	bne	a4,t2,6f4 <fail>

0000000000000370 <test_52>:
 370:	03400193          	li	gp,52
 374:	212120b7          	lui	ra,0x21212
 378:	1210809b          	addw	ra,ra,289 # 21212121 <_end+0x112120d9>
 37c:	02b00113          	li	sp,43
 380:	00209733          	sll	a4,ra,sp
 384:	000123b7          	lui	t2,0x12
 388:	1213839b          	addw	t2,t2,289 # 12121 <begin_signature+0xe121>
 38c:	02b39393          	sll	t2,t2,0x2b
 390:	36771263          	bne	a4,t2,6f4 <fail>

0000000000000394 <test_22>:
 394:	01600193          	li	gp,22
 398:	00100093          	li	ra,1
 39c:	00700113          	li	sp,7
 3a0:	002090b3          	sll	ra,ra,sp
 3a4:	08000393          	li	t2,128
 3a8:	34709663          	bne	ra,t2,6f4 <fail>

00000000000003ac <test_23>:
 3ac:	01700193          	li	gp,23
 3b0:	00100093          	li	ra,1
 3b4:	00e00113          	li	sp,14
 3b8:	00209133          	sll	sp,ra,sp
 3bc:	000043b7          	lui	t2,0x4
 3c0:	32711a63          	bne	sp,t2,6f4 <fail>

00000000000003c4 <test_24>:
 3c4:	01800193          	li	gp,24
 3c8:	00300093          	li	ra,3
 3cc:	001090b3          	sll	ra,ra,ra
 3d0:	01800393          	li	t2,24
 3d4:	32709063          	bne	ra,t2,6f4 <fail>

00000000000003d8 <test_25>:
 3d8:	01900193          	li	gp,25
 3dc:	00000213          	li	tp,0
 3e0:	00100093          	li	ra,1
 3e4:	00700113          	li	sp,7
 3e8:	00209733          	sll	a4,ra,sp
 3ec:	00070313          	mv	t1,a4
 3f0:	00120213          	add	tp,tp,1 # 1 <_start+0x1>
 3f4:	00200293          	li	t0,2
 3f8:	fe5214e3          	bne	tp,t0,3e0 <test_25+0x8>
 3fc:	08000393          	li	t2,128
 400:	2e731a63          	bne	t1,t2,6f4 <fail>

0000000000000404 <test_26>:
 404:	01a00193          	li	gp,26
 408:	00000213          	li	tp,0
 40c:	00100093          	li	ra,1
 410:	00e00113          	li	sp,14
 414:	00209733          	sll	a4,ra,sp
 418:	00000013          	nop
 41c:	00070313          	mv	t1,a4
 420:	00120213          	add	tp,tp,1 # 1 <_start+0x1>
 424:	00200293          	li	t0,2
 428:	fe5212e3          	bne	tp,t0,40c <test_26+0x8>
 42c:	000043b7          	lui	t2,0x4
 430:	2c731263          	bne	t1,t2,6f4 <fail>

0000000000000434 <test_27>:
 434:	01b00193          	li	gp,27
 438:	00000213          	li	tp,0
 43c:	00100093          	li	ra,1
 440:	01f00113          	li	sp,31
 444:	00209733          	sll	a4,ra,sp
 448:	00000013          	nop
 44c:	00000013          	nop
 450:	00070313          	mv	t1,a4
 454:	00120213          	add	tp,tp,1 # 1 <_start+0x1>
 458:	00200293          	li	t0,2
 45c:	fe5210e3          	bne	tp,t0,43c <test_27+0x8>
 460:	0010039b          	addw	t2,zero,1
 464:	01f39393          	sll	t2,t2,0x1f
 468:	28731663          	bne	t1,t2,6f4 <fail>

000000000000046c <test_28>:
 46c:	01c00193          	li	gp,28
 470:	00000213          	li	tp,0
 474:	00100093          	li	ra,1
 478:	00700113          	li	sp,7
 47c:	00209733          	sll	a4,ra,sp
 480:	00120213          	add	tp,tp,1 # 1 <_start+0x1>
 484:	00200293          	li	t0,2
 488:	fe5216e3          	bne	tp,t0,474 <test_28+0x8>
 48c:	08000393          	li	t2,128
 490:	26771263          	bne	a4,t2,6f4 <fail>

0000000000000494 <test_29>:
 494:	01d00193          	li	gp,29
 498:	00000213          	li	tp,0
 49c:	00100093          	li	ra,1
 4a0:	00e00113          	li	sp,14
 4a4:	00000013          	nop
 4a8:	00209733          	sll	a4,ra,sp
 4ac:	00120213          	add	tp,tp,1 # 1 <_start+0x1>
 4b0:	00200293          	li	t0,2
 4b4:	fe5214e3          	bne	tp,t0,49c <test_29+0x8>
 4b8:	000043b7          	lui	t2,0x4
 4bc:	22771c63          	bne	a4,t2,6f4 <fail>

00000000000004c0 <test_30>:
 4c0:	01e00193          	li	gp,30
 4c4:	00000213          	li	tp,0
 4c8:	00100093          	li	ra,1
 4cc:	01f00113          	li	sp,31
 4d0:	00000013          	nop
 4d4:	00000013          	nop
 4d8:	00209733          	sll	a4,ra,sp
 4dc:	00120213          	add	tp,tp,1 # 1 <_start+0x1>
 4e0:	00200293          	li	t0,2
 4e4:	fe5212e3          	bne	tp,t0,4c8 <test_30+0x8>
 4e8:	0010039b          	addw	t2,zero,1
 4ec:	01f39393          	sll	t2,t2,0x1f
 4f0:	20771263          	bne	a4,t2,6f4 <fail>

00000000000004f4 <test_31>:
 4f4:	01f00193          	li	gp,31
 4f8:	00000213          	li	tp,0
 4fc:	00100093          	li	ra,1
 500:	00000013          	nop
 504:	00700113          	li	sp,7
 508:	00209733          	sll	a4,ra,sp
 50c:	00120213          	add	tp,tp,1 # 1 <_start+0x1>
 510:	00200293          	li	t0,2
 514:	fe5214e3          	bne	tp,t0,4fc <test_31+0x8>
 518:	08000393          	li	t2,128
 51c:	1c771c63          	bne	a4,t2,6f4 <fail>

0000000000000520 <test_32>:
 520:	02000193          	li	gp,32
 524:	00000213          	li	tp,0
 528:	00100093          	li	ra,1
 52c:	00000013          	nop
 530:	00e00113          	li	sp,14
 534:	00000013          	nop
 538:	00209733          	sll	a4,ra,sp
 53c:	00120213          	add	tp,tp,1 # 1 <_start+0x1>
 540:	00200293          	li	t0,2
 544:	fe5212e3          	bne	tp,t0,528 <test_32+0x8>
 548:	000043b7          	lui	t2,0x4
 54c:	1a771463          	bne	a4,t2,6f4 <fail>

0000000000000550 <test_33>:
 550:	02100193          	li	gp,33
 554:	00000213          	li	tp,0
 558:	00100093          	li	ra,1
 55c:	00000013          	nop
 560:	00000013          	nop
 564:	01f00113          	li	sp,31
 568:	00209733          	sll	a4,ra,sp
 56c:	00120213          	add	tp,tp,1 # 1 <_start+0x1>
 570:	00200293          	li	t0,2
 574:	fe5212e3          	bne	tp,t0,558 <test_33+0x8>
 578:	0010039b          	addw	t2,zero,1
 57c:	01f39393          	sll	t2,t2,0x1f
 580:	16771a63          	bne	a4,t2,6f4 <fail>

0000000000000584 <test_34>:
 584:	02200193          	li	gp,34
 588:	00000213          	li	tp,0
 58c:	00700113          	li	sp,7
 590:	00100093          	li	ra,1
 594:	00209733          	sll	a4,ra,sp
 598:	00120213          	add	tp,tp,1 # 1 <_start+0x1>
 59c:	00200293          	li	t0,2
 5a0:	fe5216e3          	bne	tp,t0,58c <test_34+0x8>
 5a4:	08000393          	li	t2,128
 5a8:	14771663          	bne	a4,t2,6f4 <fail>

00000000000005ac <test_35>:
 5ac:	02300193          	li	gp,35
 5b0:	00000213          	li	tp,0
 5b4:	00e00113          	li	sp,14
 5b8:	00100093          	li	ra,1
 5bc:	00000013          	nop
 5c0:	00209733          	sll	a4,ra,sp
 5c4:	00120213          	add	tp,tp,1 # 1 <_start+0x1>
 5c8:	00200293          	li	t0,2
 5cc:	fe5214e3          	bne	tp,t0,5b4 <test_35+0x8>
 5d0:	000043b7          	lui	t2,0x4
 5d4:	12771063          	bne	a4,t2,6f4 <fail>

00000000000005d8 <test_36>:
 5d8:	02400193          	li	gp,36
 5dc:	00000213          	li	tp,0
 5e0:	01f00113          	li	sp,31
 5e4:	00100093          	li	ra,1
 5e8:	00000013          	nop
 5ec:	00000013          	nop
 5f0:	00209733          	sll	a4,ra,sp
 5f4:	00120213          	add	tp,tp,1 # 1 <_start+0x1>
 5f8:	00200293          	li	t0,2
 5fc:	fe5212e3          	bne	tp,t0,5e0 <test_36+0x8>
 600:	0010039b          	addw	t2,zero,1
 604:	01f39393          	sll	t2,t2,0x1f
 608:	0e771663          	bne	a4,t2,6f4 <fail>

000000000000060c <test_37>:
 60c:	02500193          	li	gp,37
 610:	00000213          	li	tp,0
 614:	00700113          	li	sp,7
 618:	00000013          	nop
 61c:	00100093          	li	ra,1
 620:	00209733          	sll	a4,ra,sp
 624:	00120213          	add	tp,tp,1 # 1 <_start+0x1>
 628:	00200293          	li	t0,2
 62c:	fe5214e3          	bne	tp,t0,614 <test_37+0x8>
 630:	08000393          	li	t2,128
 634:	0c771063          	bne	a4,t2,6f4 <fail>

0000000000000638 <test_38>:
 638:	02600193          	li	gp,38
 63c:	00000213          	li	tp,0
 640:	00e00113          	li	sp,14
 644:	00000013          	nop
 648:	00100093          	li	ra,1
 64c:	00000013          	nop
 650:	00209733          	sll	a4,ra,sp
 654:	00120213          	add	tp,tp,1 # 1 <_start+0x1>
 658:	00200293          	li	t0,2
 65c:	fe5212e3          	bne	tp,t0,640 <test_38+0x8>
 660:	000043b7          	lui	t2,0x4
 664:	08771863          	bne	a4,t2,6f4 <fail>

0000000000000668 <test_39>:
 668:	02700193          	li	gp,39
 66c:	00000213          	li	tp,0
 670:	01f00113          	li	sp,31
 674:	00000013          	nop
 678:	00000013          	nop
 67c:	00100093          	li	ra,1
 680:	00209733          	sll	a4,ra,sp
 684:	00120213          	add	tp,tp,1 # 1 <_start+0x1>
 688:	00200293          	li	t0,2
 68c:	fe5212e3          	bne	tp,t0,670 <test_39+0x8>
 690:	0010039b          	addw	t2,zero,1
 694:	01f39393          	sll	t2,t2,0x1f
 698:	04771e63          	bne	a4,t2,6f4 <fail>

000000000000069c <test_40>:
 69c:	02800193          	li	gp,40
 6a0:	00f00093          	li	ra,15
 6a4:	00101133          	sll	sp,zero,ra
 6a8:	00000393          	li	t2,0
 6ac:	04711463          	bne	sp,t2,6f4 <fail>

00000000000006b0 <test_41>:
 6b0:	02900193          	li	gp,41
 6b4:	02000093          	li	ra,32
 6b8:	00009133          	sll	sp,ra,zero
 6bc:	02000393          	li	t2,32
 6c0:	02711a63          	bne	sp,t2,6f4 <fail>

00000000000006c4 <test_42>:
 6c4:	02a00193          	li	gp,42
 6c8:	000010b3          	sll	ra,zero,zero
 6cc:	00000393          	li	t2,0
 6d0:	02709263          	bne	ra,t2,6f4 <fail>

00000000000006d4 <test_43>:
 6d4:	02b00193          	li	gp,43
 6d8:	40000093          	li	ra,1024
 6dc:	00001137          	lui	sp,0x1
 6e0:	8001011b          	addw	sp,sp,-2048 # 800 <pass+0xf0>
 6e4:	00209033          	sll	zero,ra,sp
 6e8:	00000393          	li	t2,0
 6ec:	00701463          	bne	zero,t2,6f4 <fail>
 6f0:	02301063          	bne	zero,gp,710 <pass>

00000000000006f4 <fail>:
 6f4:	0ff0000f          	fence
 6f8:	00018063          	beqz	gp,6f8 <fail+0x4>
 6fc:	00119193          	sll	gp,gp,0x1
 700:	0011e193          	or	gp,gp,1
 704:	05d00893          	li	a7,93
 708:	00018513          	mv	a0,gp
 70c:	00000073          	ecall

0000000000000710 <pass>:
 710:	0ff0000f          	fence
 714:	00100193          	li	gp,1
 718:	05d00893          	li	a7,93
 71c:	00000513          	li	a0,0
 720:	00000073          	ecall
 724:	c0001073          	unimp
 728:	0000                	.2byte	0x0
 72a:	0000                	.2byte	0x0
 72c:	0000                	.2byte	0x0
 72e:	0000                	.2byte	0x0
 730:	0000                	.2byte	0x0
 732:	0000                	.2byte	0x0
 734:	0000                	.2byte	0x0
 736:	0000                	.2byte	0x0
 738:	0000                	.2byte	0x0
 73a:	0000                	.2byte	0x0
 73c:	0000                	.2byte	0x0
 73e:	0000                	.2byte	0x0
 740:	0000                	.2byte	0x0
 742:	0000                	.2byte	0x0
