
slli.out:     file format elf64-littleriscv


Disassembly of section .text.init:

0000000000000000 <_start>:
   0:	00000093          	li	ra,0
   4:	00000113          	li	sp,0
   8:	00000193          	li	gp,0
   c:	00000213          	li	tp,0
  10:	00000293          	li	t0,0
  14:	00000313          	li	t1,0
  18:	00000393          	li	t2,0
  1c:	00000413          	li	s0,0
  20:	00000493          	li	s1,0
  24:	00000513          	li	a0,0
  28:	00000593          	li	a1,0
  2c:	00000613          	li	a2,0
  30:	00000693          	li	a3,0
  34:	00000713          	li	a4,0
  38:	00000793          	li	a5,0
  3c:	00000813          	li	a6,0
  40:	00000893          	li	a7,0
  44:	00000913          	li	s2,0
  48:	00000993          	li	s3,0
  4c:	00000a13          	li	s4,0
  50:	00000a93          	li	s5,0
  54:	00000b13          	li	s6,0
  58:	00000b93          	li	s7,0
  5c:	00000c13          	li	s8,0
  60:	00000c93          	li	s9,0
  64:	00000d13          	li	s10,0
  68:	00000d93          	li	s11,0
  6c:	00000e13          	li	t3,0
  70:	00000e93          	li	t4,0
  74:	00000f13          	li	t5,0
  78:	00000f93          	li	t6,0
  7c:	00000193          	li	gp,0

0000000000000080 <test_2>:
  80:	00200193          	li	gp,2
  84:	00100093          	li	ra,1
  88:	00009713          	sll	a4,ra,0x0
  8c:	00100393          	li	t2,1
  90:	2e771463          	bne	a4,t2,378 <fail>

0000000000000094 <test_3>:
  94:	00300193          	li	gp,3
  98:	00100093          	li	ra,1
  9c:	00109713          	sll	a4,ra,0x1
  a0:	00200393          	li	t2,2
  a4:	2c771a63          	bne	a4,t2,378 <fail>

00000000000000a8 <test_4>:
  a8:	00400193          	li	gp,4
  ac:	00100093          	li	ra,1
  b0:	00709713          	sll	a4,ra,0x7
  b4:	08000393          	li	t2,128
  b8:	2c771063          	bne	a4,t2,378 <fail>

00000000000000bc <test_5>:
  bc:	00500193          	li	gp,5
  c0:	00100093          	li	ra,1
  c4:	00e09713          	sll	a4,ra,0xe
  c8:	000043b7          	lui	t2,0x4
  cc:	2a771663          	bne	a4,t2,378 <fail>

00000000000000d0 <test_6>:
  d0:	00600193          	li	gp,6
  d4:	00100093          	li	ra,1
  d8:	01f09713          	sll	a4,ra,0x1f
  dc:	0010039b          	addw	t2,zero,1
  e0:	01f39393          	sll	t2,t2,0x1f
  e4:	28771a63          	bne	a4,t2,378 <fail>

00000000000000e8 <test_7>:
  e8:	00700193          	li	gp,7
  ec:	fff00093          	li	ra,-1
  f0:	00009713          	sll	a4,ra,0x0
  f4:	fff00393          	li	t2,-1
  f8:	28771063          	bne	a4,t2,378 <fail>

00000000000000fc <test_8>:
  fc:	00800193          	li	gp,8
 100:	fff00093          	li	ra,-1
 104:	00109713          	sll	a4,ra,0x1
 108:	ffe00393          	li	t2,-2
 10c:	26771663          	bne	a4,t2,378 <fail>

0000000000000110 <test_9>:
 110:	00900193          	li	gp,9
 114:	fff00093          	li	ra,-1
 118:	00709713          	sll	a4,ra,0x7
 11c:	f8000393          	li	t2,-128
 120:	24771c63          	bne	a4,t2,378 <fail>

0000000000000124 <test_10>:
 124:	00a00193          	li	gp,10
 128:	fff00093          	li	ra,-1
 12c:	00e09713          	sll	a4,ra,0xe
 130:	ffffc3b7          	lui	t2,0xffffc
 134:	24771263          	bne	a4,t2,378 <fail>

0000000000000138 <test_11>:
 138:	00b00193          	li	gp,11
 13c:	fff00093          	li	ra,-1
 140:	01f09713          	sll	a4,ra,0x1f
 144:	800003b7          	lui	t2,0x80000
 148:	22771863          	bne	a4,t2,378 <fail>

000000000000014c <test_12>:
 14c:	00c00193          	li	gp,12
 150:	212120b7          	lui	ra,0x21212
 154:	1210809b          	addw	ra,ra,289 # 21212121 <_end+0x112120d9>
 158:	00009713          	sll	a4,ra,0x0
 15c:	212123b7          	lui	t2,0x21212
 160:	1213839b          	addw	t2,t2,289 # 21212121 <_end+0x112120d9>
 164:	20771a63          	bne	a4,t2,378 <fail>

0000000000000168 <test_13>:
 168:	00d00193          	li	gp,13
 16c:	212120b7          	lui	ra,0x21212
 170:	1210809b          	addw	ra,ra,289 # 21212121 <_end+0x112120d9>
 174:	00109713          	sll	a4,ra,0x1
 178:	424243b7          	lui	t2,0x42424
 17c:	2423839b          	addw	t2,t2,578 # 42424242 <_end+0x324241fa>
 180:	1e771c63          	bne	a4,t2,378 <fail>

0000000000000184 <test_14>:
 184:	00e00193          	li	gp,14
 188:	212120b7          	lui	ra,0x21212
 18c:	1210809b          	addw	ra,ra,289 # 21212121 <_end+0x112120d9>
 190:	00709713          	sll	a4,ra,0x7
 194:	010913b7          	lui	t2,0x1091
 198:	9093839b          	addw	t2,t2,-1783 # 1090909 <begin_signature+0x108c909>
 19c:	00c39393          	sll	t2,t2,0xc
 1a0:	08038393          	add	t2,t2,128
 1a4:	1c771a63          	bne	a4,t2,378 <fail>

00000000000001a8 <test_15>:
 1a8:	00f00193          	li	gp,15
 1ac:	212120b7          	lui	ra,0x21212
 1b0:	1210809b          	addw	ra,ra,289 # 21212121 <_end+0x112120d9>
 1b4:	00e09713          	sll	a4,ra,0xe
 1b8:	212123b7          	lui	t2,0x21212
 1bc:	1213839b          	addw	t2,t2,289 # 21212121 <_end+0x112120d9>
 1c0:	00e39393          	sll	t2,t2,0xe
 1c4:	1a771a63          	bne	a4,t2,378 <fail>

00000000000001c8 <test_16>:
 1c8:	01000193          	li	gp,16
 1cc:	212120b7          	lui	ra,0x21212
 1d0:	1210809b          	addw	ra,ra,289 # 21212121 <_end+0x112120d9>
 1d4:	01f09713          	sll	a4,ra,0x1f
 1d8:	212123b7          	lui	t2,0x21212
 1dc:	1213839b          	addw	t2,t2,289 # 21212121 <_end+0x112120d9>
 1e0:	01f39393          	sll	t2,t2,0x1f
 1e4:	18771a63          	bne	a4,t2,378 <fail>

00000000000001e8 <test_50>:
 1e8:	03200193          	li	gp,50
 1ec:	00100093          	li	ra,1
 1f0:	03f09713          	sll	a4,ra,0x3f
 1f4:	fff0039b          	addw	t2,zero,-1
 1f8:	03f39393          	sll	t2,t2,0x3f
 1fc:	16771e63          	bne	a4,t2,378 <fail>

0000000000000200 <test_51>:
 200:	03300193          	li	gp,51
 204:	fff00093          	li	ra,-1
 208:	02709713          	sll	a4,ra,0x27
 20c:	fff0039b          	addw	t2,zero,-1
 210:	02739393          	sll	t2,t2,0x27
 214:	16771263          	bne	a4,t2,378 <fail>

0000000000000218 <test_52>:
 218:	03400193          	li	gp,52
 21c:	212120b7          	lui	ra,0x21212
 220:	1210809b          	addw	ra,ra,289 # 21212121 <_end+0x112120d9>
 224:	02b09713          	sll	a4,ra,0x2b
 228:	000123b7          	lui	t2,0x12
 22c:	1213839b          	addw	t2,t2,289 # 12121 <begin_signature+0xe121>
 230:	02b39393          	sll	t2,t2,0x2b
 234:	14771263          	bne	a4,t2,378 <fail>

0000000000000238 <test_17>:
 238:	01100193          	li	gp,17
 23c:	00100093          	li	ra,1
 240:	00709093          	sll	ra,ra,0x7
 244:	08000393          	li	t2,128
 248:	12709863          	bne	ra,t2,378 <fail>

000000000000024c <test_18>:
 24c:	01200193          	li	gp,18
 250:	00000213          	li	tp,0
 254:	00100093          	li	ra,1
 258:	00709713          	sll	a4,ra,0x7
 25c:	00070313          	mv	t1,a4
 260:	00120213          	add	tp,tp,1 # 1 <_start+0x1>
 264:	00200293          	li	t0,2
 268:	fe5216e3          	bne	tp,t0,254 <test_18+0x8>
 26c:	08000393          	li	t2,128
 270:	10731463          	bne	t1,t2,378 <fail>

0000000000000274 <test_19>:
 274:	01300193          	li	gp,19
 278:	00000213          	li	tp,0
 27c:	00100093          	li	ra,1
 280:	00e09713          	sll	a4,ra,0xe
 284:	00000013          	nop
 288:	00070313          	mv	t1,a4
 28c:	00120213          	add	tp,tp,1 # 1 <_start+0x1>
 290:	00200293          	li	t0,2
 294:	fe5214e3          	bne	tp,t0,27c <test_19+0x8>
 298:	000043b7          	lui	t2,0x4
 29c:	0c731e63          	bne	t1,t2,378 <fail>

00000000000002a0 <test_20>:
 2a0:	01400193          	li	gp,20
 2a4:	00000213          	li	tp,0
 2a8:	00100093          	li	ra,1
 2ac:	01f09713          	sll	a4,ra,0x1f
 2b0:	00000013          	nop
 2b4:	00000013          	nop
 2b8:	00070313          	mv	t1,a4
 2bc:	00120213          	add	tp,tp,1 # 1 <_start+0x1>
 2c0:	00200293          	li	t0,2
 2c4:	fe5212e3          	bne	tp,t0,2a8 <test_20+0x8>
 2c8:	0010039b          	addw	t2,zero,1
 2cc:	01f39393          	sll	t2,t2,0x1f
 2d0:	0a731463          	bne	t1,t2,378 <fail>

00000000000002d4 <test_21>:
 2d4:	01500193          	li	gp,21
 2d8:	00000213          	li	tp,0
 2dc:	00100093          	li	ra,1
 2e0:	00709713          	sll	a4,ra,0x7
 2e4:	00120213          	add	tp,tp,1 # 1 <_start+0x1>
 2e8:	00200293          	li	t0,2
 2ec:	fe5218e3          	bne	tp,t0,2dc <test_21+0x8>
 2f0:	08000393          	li	t2,128
 2f4:	08771263          	bne	a4,t2,378 <fail>

00000000000002f8 <test_22>:
 2f8:	01600193          	li	gp,22
 2fc:	00000213          	li	tp,0
 300:	00100093          	li	ra,1
 304:	00000013          	nop
 308:	00e09713          	sll	a4,ra,0xe
 30c:	00120213          	add	tp,tp,1 # 1 <_start+0x1>
 310:	00200293          	li	t0,2
 314:	fe5216e3          	bne	tp,t0,300 <test_22+0x8>
 318:	000043b7          	lui	t2,0x4
 31c:	04771e63          	bne	a4,t2,378 <fail>

0000000000000320 <test_23>:
 320:	01700193          	li	gp,23
 324:	00000213          	li	tp,0
 328:	00100093          	li	ra,1
 32c:	00000013          	nop
 330:	00000013          	nop
 334:	01f09713          	sll	a4,ra,0x1f
 338:	00120213          	add	tp,tp,1 # 1 <_start+0x1>
 33c:	00200293          	li	t0,2
 340:	fe5214e3          	bne	tp,t0,328 <test_23+0x8>
 344:	0010039b          	addw	t2,zero,1
 348:	01f39393          	sll	t2,t2,0x1f
 34c:	02771663          	bne	a4,t2,378 <fail>

0000000000000350 <test_24>:
 350:	01800193          	li	gp,24
 354:	01f01093          	sll	ra,zero,0x1f
 358:	00000393          	li	t2,0
 35c:	00709e63          	bne	ra,t2,378 <fail>

0000000000000360 <test_25>:
 360:	01900193          	li	gp,25
 364:	02100093          	li	ra,33
 368:	01409013          	sll	zero,ra,0x14
 36c:	00000393          	li	t2,0
 370:	00701463          	bne	zero,t2,378 <fail>
 374:	02301263          	bne	zero,gp,398 <pass>

0000000000000378 <fail>:
 378:	0ff0000f          	fence
 37c:	00018063          	beqz	gp,37c <fail+0x4>
 380:	00119193          	sll	gp,gp,0x1
 384:	0011e193          	or	gp,gp,1
 388:	10000297          	auipc	t0,0x10000
 38c:	c7828293          	add	t0,t0,-904 # 10000000 <tohost>
 390:	0032a023          	sw	gp,0(t0)
 394:	0000006f          	j	394 <fail+0x1c>

0000000000000398 <pass>:
 398:	0ff0000f          	fence
 39c:	00100193          	li	gp,1
 3a0:	10000297          	auipc	t0,0x10000
 3a4:	c6028293          	add	t0,t0,-928 # 10000000 <tohost>
 3a8:	0032a023          	sw	gp,0(t0)
 3ac:	0000006f          	j	3ac <pass+0x14>
 3b0:	c0001073          	unimp
 3b4:	0000                	.2byte	0x0
 3b6:	0000                	.2byte	0x0
 3b8:	0000                	.2byte	0x0
 3ba:	0000                	.2byte	0x0
 3bc:	0000                	.2byte	0x0
 3be:	0000                	.2byte	0x0
 3c0:	0000                	.2byte	0x0
 3c2:	0000                	.2byte	0x0
