
sltu.out:     file format elf64-littleriscv


Disassembly of section .text.init:

0000000000000000 <_start>:
   0:	03c0006f          	j	3c <reset_vector>

0000000000000004 <trap_vector>:
   4:	34202f73          	csrr	t5,mcause
   8:	00800f93          	li	t6,8
   c:	03ff0263          	beq	t5,t6,30 <write_tohost>
  10:	00900f93          	li	t6,9
  14:	01ff0e63          	beq	t5,t6,30 <write_tohost>
  18:	00b00f93          	li	t6,11
  1c:	01ff0a63          	beq	t5,t6,30 <write_tohost>
  20:	34202f73          	csrr	t5,mcause
  24:	000f5463          	bgez	t5,2c <handle_exception>
  28:	0040006f          	j	2c <handle_exception>

000000000000002c <handle_exception>:
  2c:	5391e193          	or	gp,gp,1337

0000000000000030 <write_tohost>:
  30:	10000f17          	auipc	t5,0x10000
  34:	fc3f2823          	sw	gp,-48(t5) # 10000000 <tohost>
  38:	0000006f          	j	38 <write_tohost+0x8>

000000000000003c <reset_vector>:
  3c:	b0005073          	csrw	mcycle,0
  40:	b0205073          	csrw	minstret,0
  44:	00000093          	li	ra,0
  48:	00000113          	li	sp,0
  4c:	00000193          	li	gp,0
  50:	00000213          	li	tp,0
  54:	00000293          	li	t0,0
  58:	00000313          	li	t1,0
  5c:	00000393          	li	t2,0
  60:	00000413          	li	s0,0
  64:	00000493          	li	s1,0
  68:	00000513          	li	a0,0
  6c:	00000593          	li	a1,0
  70:	00000613          	li	a2,0
  74:	00000693          	li	a3,0
  78:	00000713          	li	a4,0
  7c:	00000793          	li	a5,0
  80:	00000813          	li	a6,0
  84:	00000893          	li	a7,0
  88:	00000913          	li	s2,0
  8c:	00000993          	li	s3,0
  90:	00000a13          	li	s4,0
  94:	00000a93          	li	s5,0
  98:	00000b13          	li	s6,0
  9c:	00000b93          	li	s7,0
  a0:	00000c13          	li	s8,0
  a4:	00000c93          	li	s9,0
  a8:	00000d13          	li	s10,0
  ac:	00000d93          	li	s11,0
  b0:	00000e13          	li	t3,0
  b4:	00000e93          	li	t4,0
  b8:	00000f13          	li	t5,0
  bc:	00000f93          	li	t6,0
  c0:	00000193          	li	gp,0
  c4:	00000297          	auipc	t0,0x0
  c8:	f4028293          	add	t0,t0,-192 # 4 <trap_vector>
  cc:	30529073          	csrw	mtvec,t0
  d0:	30005073          	csrw	mstatus,0
  d4:	00000297          	auipc	t0,0x0
  d8:	01428293          	add	t0,t0,20 # e8 <test_2>
  dc:	34129073          	csrw	mepc,t0
  e0:	f1402573          	csrr	a0,mhartid
  e4:	30200073          	mret

00000000000000e8 <test_2>:
  e8:	00200193          	li	gp,2
  ec:	00000093          	li	ra,0
  f0:	00000113          	li	sp,0
  f4:	0020b733          	sltu	a4,ra,sp
  f8:	00000393          	li	t2,0
  fc:	4e771c63          	bne	a4,t2,5f4 <fail>

0000000000000100 <test_3>:
 100:	00300193          	li	gp,3
 104:	00100093          	li	ra,1
 108:	00100113          	li	sp,1
 10c:	0020b733          	sltu	a4,ra,sp
 110:	00000393          	li	t2,0
 114:	4e771063          	bne	a4,t2,5f4 <fail>

0000000000000118 <test_4>:
 118:	00400193          	li	gp,4
 11c:	00300093          	li	ra,3
 120:	00700113          	li	sp,7
 124:	0020b733          	sltu	a4,ra,sp
 128:	00100393          	li	t2,1
 12c:	4c771463          	bne	a4,t2,5f4 <fail>

0000000000000130 <test_5>:
 130:	00500193          	li	gp,5
 134:	00700093          	li	ra,7
 138:	00300113          	li	sp,3
 13c:	0020b733          	sltu	a4,ra,sp
 140:	00000393          	li	t2,0
 144:	4a771863          	bne	a4,t2,5f4 <fail>

0000000000000148 <test_6>:
 148:	00600193          	li	gp,6
 14c:	00000093          	li	ra,0
 150:	00020137          	lui	sp,0x20
 154:	fff1011b          	addw	sp,sp,-1 # 1ffff <begin_signature+0x1bfff>
 158:	00f11113          	sll	sp,sp,0xf
 15c:	0020b733          	sltu	a4,ra,sp
 160:	00100393          	li	t2,1
 164:	48771863          	bne	a4,t2,5f4 <fail>

0000000000000168 <test_7>:
 168:	00700193          	li	gp,7
 16c:	0010009b          	addw	ra,zero,1
 170:	01f09093          	sll	ra,ra,0x1f
 174:	00000113          	li	sp,0
 178:	0020b733          	sltu	a4,ra,sp
 17c:	00000393          	li	t2,0
 180:	46771a63          	bne	a4,t2,5f4 <fail>

0000000000000184 <test_8>:
 184:	00800193          	li	gp,8
 188:	0010009b          	addw	ra,zero,1
 18c:	01f09093          	sll	ra,ra,0x1f
 190:	00020137          	lui	sp,0x20
 194:	fff1011b          	addw	sp,sp,-1 # 1ffff <begin_signature+0x1bfff>
 198:	00f11113          	sll	sp,sp,0xf
 19c:	0020b733          	sltu	a4,ra,sp
 1a0:	00100393          	li	t2,1
 1a4:	44771863          	bne	a4,t2,5f4 <fail>

00000000000001a8 <test_9>:
 1a8:	00900193          	li	gp,9
 1ac:	00000093          	li	ra,0
 1b0:	00008137          	lui	sp,0x8
 1b4:	fff1011b          	addw	sp,sp,-1 # 7fff <begin_signature+0x3fff>
 1b8:	0020b733          	sltu	a4,ra,sp
 1bc:	00100393          	li	t2,1
 1c0:	42771a63          	bne	a4,t2,5f4 <fail>

00000000000001c4 <test_10>:
 1c4:	00a00193          	li	gp,10
 1c8:	800000b7          	lui	ra,0x80000
 1cc:	fff0809b          	addw	ra,ra,-1 # 7fffffff <_end+0x6fffffb7>
 1d0:	00000113          	li	sp,0
 1d4:	0020b733          	sltu	a4,ra,sp
 1d8:	00000393          	li	t2,0
 1dc:	40771c63          	bne	a4,t2,5f4 <fail>

00000000000001e0 <test_11>:
 1e0:	00b00193          	li	gp,11
 1e4:	800000b7          	lui	ra,0x80000
 1e8:	fff0809b          	addw	ra,ra,-1 # 7fffffff <_end+0x6fffffb7>
 1ec:	00008137          	lui	sp,0x8
 1f0:	fff1011b          	addw	sp,sp,-1 # 7fff <begin_signature+0x3fff>
 1f4:	0020b733          	sltu	a4,ra,sp
 1f8:	00000393          	li	t2,0
 1fc:	3e771c63          	bne	a4,t2,5f4 <fail>

0000000000000200 <test_12>:
 200:	00c00193          	li	gp,12
 204:	0010009b          	addw	ra,zero,1
 208:	01f09093          	sll	ra,ra,0x1f
 20c:	00008137          	lui	sp,0x8
 210:	fff1011b          	addw	sp,sp,-1 # 7fff <begin_signature+0x3fff>
 214:	0020b733          	sltu	a4,ra,sp
 218:	00000393          	li	t2,0
 21c:	3c771c63          	bne	a4,t2,5f4 <fail>

0000000000000220 <test_13>:
 220:	00d00193          	li	gp,13
 224:	800000b7          	lui	ra,0x80000
 228:	fff0809b          	addw	ra,ra,-1 # 7fffffff <_end+0x6fffffb7>
 22c:	00020137          	lui	sp,0x20
 230:	fff1011b          	addw	sp,sp,-1 # 1ffff <begin_signature+0x1bfff>
 234:	00f11113          	sll	sp,sp,0xf
 238:	0020b733          	sltu	a4,ra,sp
 23c:	00100393          	li	t2,1
 240:	3a771a63          	bne	a4,t2,5f4 <fail>

0000000000000244 <test_14>:
 244:	00e00193          	li	gp,14
 248:	00000093          	li	ra,0
 24c:	0010011b          	addw	sp,zero,1
 250:	02011113          	sll	sp,sp,0x20
 254:	fff10113          	add	sp,sp,-1
 258:	0020b733          	sltu	a4,ra,sp
 25c:	00100393          	li	t2,1
 260:	38771a63          	bne	a4,t2,5f4 <fail>

0000000000000264 <test_15>:
 264:	00f00193          	li	gp,15
 268:	0010009b          	addw	ra,zero,1
 26c:	02009093          	sll	ra,ra,0x20
 270:	fff08093          	add	ra,ra,-1
 274:	00100113          	li	sp,1
 278:	0020b733          	sltu	a4,ra,sp
 27c:	00000393          	li	t2,0
 280:	36771a63          	bne	a4,t2,5f4 <fail>

0000000000000284 <test_16>:
 284:	01000193          	li	gp,16
 288:	0010009b          	addw	ra,zero,1
 28c:	02009093          	sll	ra,ra,0x20
 290:	fff08093          	add	ra,ra,-1
 294:	0010011b          	addw	sp,zero,1
 298:	02011113          	sll	sp,sp,0x20
 29c:	fff10113          	add	sp,sp,-1
 2a0:	0020b733          	sltu	a4,ra,sp
 2a4:	00000393          	li	t2,0
 2a8:	34771663          	bne	a4,t2,5f4 <fail>

00000000000002ac <test_17>:
 2ac:	01100193          	li	gp,17
 2b0:	00e00093          	li	ra,14
 2b4:	00d00113          	li	sp,13
 2b8:	0020b0b3          	sltu	ra,ra,sp
 2bc:	00000393          	li	t2,0
 2c0:	32709a63          	bne	ra,t2,5f4 <fail>

00000000000002c4 <test_18>:
 2c4:	01200193          	li	gp,18
 2c8:	00b00093          	li	ra,11
 2cc:	00d00113          	li	sp,13
 2d0:	0020b133          	sltu	sp,ra,sp
 2d4:	00100393          	li	t2,1
 2d8:	30711e63          	bne	sp,t2,5f4 <fail>

00000000000002dc <test_19>:
 2dc:	01300193          	li	gp,19
 2e0:	00d00093          	li	ra,13
 2e4:	0010b0b3          	sltu	ra,ra,ra
 2e8:	00000393          	li	t2,0
 2ec:	30709463          	bne	ra,t2,5f4 <fail>

00000000000002f0 <test_20>:
 2f0:	01400193          	li	gp,20
 2f4:	00000213          	li	tp,0
 2f8:	00b00093          	li	ra,11
 2fc:	00d00113          	li	sp,13
 300:	0020b733          	sltu	a4,ra,sp
 304:	00070313          	mv	t1,a4
 308:	00120213          	add	tp,tp,1 # 1 <_start+0x1>
 30c:	00200293          	li	t0,2
 310:	fe5214e3          	bne	tp,t0,2f8 <test_20+0x8>
 314:	00100393          	li	t2,1
 318:	2c731e63          	bne	t1,t2,5f4 <fail>

000000000000031c <test_21>:
 31c:	01500193          	li	gp,21
 320:	00000213          	li	tp,0
 324:	00e00093          	li	ra,14
 328:	00d00113          	li	sp,13
 32c:	0020b733          	sltu	a4,ra,sp
 330:	00000013          	nop
 334:	00070313          	mv	t1,a4
 338:	00120213          	add	tp,tp,1 # 1 <_start+0x1>
 33c:	00200293          	li	t0,2
 340:	fe5212e3          	bne	tp,t0,324 <test_21+0x8>
 344:	00000393          	li	t2,0
 348:	2a731663          	bne	t1,t2,5f4 <fail>

000000000000034c <test_22>:
 34c:	01600193          	li	gp,22
 350:	00000213          	li	tp,0
 354:	00c00093          	li	ra,12
 358:	00d00113          	li	sp,13
 35c:	0020b733          	sltu	a4,ra,sp
 360:	00000013          	nop
 364:	00000013          	nop
 368:	00070313          	mv	t1,a4
 36c:	00120213          	add	tp,tp,1 # 1 <_start+0x1>
 370:	00200293          	li	t0,2
 374:	fe5210e3          	bne	tp,t0,354 <test_22+0x8>
 378:	00100393          	li	t2,1
 37c:	26731c63          	bne	t1,t2,5f4 <fail>

0000000000000380 <test_23>:
 380:	01700193          	li	gp,23
 384:	00000213          	li	tp,0
 388:	00e00093          	li	ra,14
 38c:	00d00113          	li	sp,13
 390:	0020b733          	sltu	a4,ra,sp
 394:	00120213          	add	tp,tp,1 # 1 <_start+0x1>
 398:	00200293          	li	t0,2
 39c:	fe5216e3          	bne	tp,t0,388 <test_23+0x8>
 3a0:	00000393          	li	t2,0
 3a4:	24771863          	bne	a4,t2,5f4 <fail>

00000000000003a8 <test_24>:
 3a8:	01800193          	li	gp,24
 3ac:	00000213          	li	tp,0
 3b0:	00b00093          	li	ra,11
 3b4:	00d00113          	li	sp,13
 3b8:	00000013          	nop
 3bc:	0020b733          	sltu	a4,ra,sp
 3c0:	00120213          	add	tp,tp,1 # 1 <_start+0x1>
 3c4:	00200293          	li	t0,2
 3c8:	fe5214e3          	bne	tp,t0,3b0 <test_24+0x8>
 3cc:	00100393          	li	t2,1
 3d0:	22771263          	bne	a4,t2,5f4 <fail>

00000000000003d4 <test_25>:
 3d4:	01900193          	li	gp,25
 3d8:	00000213          	li	tp,0
 3dc:	00f00093          	li	ra,15
 3e0:	00d00113          	li	sp,13
 3e4:	00000013          	nop
 3e8:	00000013          	nop
 3ec:	0020b733          	sltu	a4,ra,sp
 3f0:	00120213          	add	tp,tp,1 # 1 <_start+0x1>
 3f4:	00200293          	li	t0,2
 3f8:	fe5212e3          	bne	tp,t0,3dc <test_25+0x8>
 3fc:	00000393          	li	t2,0
 400:	1e771a63          	bne	a4,t2,5f4 <fail>

0000000000000404 <test_26>:
 404:	01a00193          	li	gp,26
 408:	00000213          	li	tp,0
 40c:	00a00093          	li	ra,10
 410:	00000013          	nop
 414:	00d00113          	li	sp,13
 418:	0020b733          	sltu	a4,ra,sp
 41c:	00120213          	add	tp,tp,1 # 1 <_start+0x1>
 420:	00200293          	li	t0,2
 424:	fe5214e3          	bne	tp,t0,40c <test_26+0x8>
 428:	00100393          	li	t2,1
 42c:	1c771463          	bne	a4,t2,5f4 <fail>

0000000000000430 <test_27>:
 430:	01b00193          	li	gp,27
 434:	00000213          	li	tp,0
 438:	01000093          	li	ra,16
 43c:	00000013          	nop
 440:	00d00113          	li	sp,13
 444:	00000013          	nop
 448:	0020b733          	sltu	a4,ra,sp
 44c:	00120213          	add	tp,tp,1 # 1 <_start+0x1>
 450:	00200293          	li	t0,2
 454:	fe5212e3          	bne	tp,t0,438 <test_27+0x8>
 458:	00000393          	li	t2,0
 45c:	18771c63          	bne	a4,t2,5f4 <fail>

0000000000000460 <test_28>:
 460:	01c00193          	li	gp,28
 464:	00000213          	li	tp,0
 468:	00900093          	li	ra,9
 46c:	00000013          	nop
 470:	00000013          	nop
 474:	00d00113          	li	sp,13
 478:	0020b733          	sltu	a4,ra,sp
 47c:	00120213          	add	tp,tp,1 # 1 <_start+0x1>
 480:	00200293          	li	t0,2
 484:	fe5212e3          	bne	tp,t0,468 <test_28+0x8>
 488:	00100393          	li	t2,1
 48c:	16771463          	bne	a4,t2,5f4 <fail>

0000000000000490 <test_29>:
 490:	01d00193          	li	gp,29
 494:	00000213          	li	tp,0
 498:	00d00113          	li	sp,13
 49c:	01100093          	li	ra,17
 4a0:	0020b733          	sltu	a4,ra,sp
 4a4:	00120213          	add	tp,tp,1 # 1 <_start+0x1>
 4a8:	00200293          	li	t0,2
 4ac:	fe5216e3          	bne	tp,t0,498 <test_29+0x8>
 4b0:	00000393          	li	t2,0
 4b4:	14771063          	bne	a4,t2,5f4 <fail>

00000000000004b8 <test_30>:
 4b8:	01e00193          	li	gp,30
 4bc:	00000213          	li	tp,0
 4c0:	00d00113          	li	sp,13
 4c4:	00800093          	li	ra,8
 4c8:	00000013          	nop
 4cc:	0020b733          	sltu	a4,ra,sp
 4d0:	00120213          	add	tp,tp,1 # 1 <_start+0x1>
 4d4:	00200293          	li	t0,2
 4d8:	fe5214e3          	bne	tp,t0,4c0 <test_30+0x8>
 4dc:	00100393          	li	t2,1
 4e0:	10771a63          	bne	a4,t2,5f4 <fail>

00000000000004e4 <test_31>:
 4e4:	01f00193          	li	gp,31
 4e8:	00000213          	li	tp,0
 4ec:	00d00113          	li	sp,13
 4f0:	01200093          	li	ra,18
 4f4:	00000013          	nop
 4f8:	00000013          	nop
 4fc:	0020b733          	sltu	a4,ra,sp
 500:	00120213          	add	tp,tp,1 # 1 <_start+0x1>
 504:	00200293          	li	t0,2
 508:	fe5212e3          	bne	tp,t0,4ec <test_31+0x8>
 50c:	00000393          	li	t2,0
 510:	0e771263          	bne	a4,t2,5f4 <fail>

0000000000000514 <test_32>:
 514:	02000193          	li	gp,32
 518:	00000213          	li	tp,0
 51c:	00d00113          	li	sp,13
 520:	00000013          	nop
 524:	00700093          	li	ra,7
 528:	0020b733          	sltu	a4,ra,sp
 52c:	00120213          	add	tp,tp,1 # 1 <_start+0x1>
 530:	00200293          	li	t0,2
 534:	fe5214e3          	bne	tp,t0,51c <test_32+0x8>
 538:	00100393          	li	t2,1
 53c:	0a771c63          	bne	a4,t2,5f4 <fail>

0000000000000540 <test_33>:
 540:	02100193          	li	gp,33
 544:	00000213          	li	tp,0
 548:	00d00113          	li	sp,13
 54c:	00000013          	nop
 550:	01300093          	li	ra,19
 554:	00000013          	nop
 558:	0020b733          	sltu	a4,ra,sp
 55c:	00120213          	add	tp,tp,1 # 1 <_start+0x1>
 560:	00200293          	li	t0,2
 564:	fe5212e3          	bne	tp,t0,548 <test_33+0x8>
 568:	00000393          	li	t2,0
 56c:	08771463          	bne	a4,t2,5f4 <fail>

0000000000000570 <test_34>:
 570:	02200193          	li	gp,34
 574:	00000213          	li	tp,0
 578:	00d00113          	li	sp,13
 57c:	00000013          	nop
 580:	00000013          	nop
 584:	00600093          	li	ra,6
 588:	0020b733          	sltu	a4,ra,sp
 58c:	00120213          	add	tp,tp,1 # 1 <_start+0x1>
 590:	00200293          	li	t0,2
 594:	fe5212e3          	bne	tp,t0,578 <test_34+0x8>
 598:	00100393          	li	t2,1
 59c:	04771c63          	bne	a4,t2,5f4 <fail>

00000000000005a0 <test_35>:
 5a0:	02300193          	li	gp,35
 5a4:	fff00093          	li	ra,-1
 5a8:	00103133          	snez	sp,ra
 5ac:	00100393          	li	t2,1
 5b0:	04711263          	bne	sp,t2,5f4 <fail>

00000000000005b4 <test_36>:
 5b4:	02400193          	li	gp,36
 5b8:	fff00093          	li	ra,-1
 5bc:	0000b133          	sltu	sp,ra,zero
 5c0:	00000393          	li	t2,0
 5c4:	02711863          	bne	sp,t2,5f4 <fail>

00000000000005c8 <test_37>:
 5c8:	02500193          	li	gp,37
 5cc:	000030b3          	snez	ra,zero
 5d0:	00000393          	li	t2,0
 5d4:	02709063          	bne	ra,t2,5f4 <fail>

00000000000005d8 <test_38>:
 5d8:	02600193          	li	gp,38
 5dc:	01000093          	li	ra,16
 5e0:	01e00113          	li	sp,30
 5e4:	0020b033          	sltu	zero,ra,sp
 5e8:	00000393          	li	t2,0
 5ec:	00701463          	bne	zero,t2,5f4 <fail>
 5f0:	02301063          	bne	zero,gp,610 <pass>

00000000000005f4 <fail>:
 5f4:	0ff0000f          	fence
 5f8:	00018063          	beqz	gp,5f8 <fail+0x4>
 5fc:	00119193          	sll	gp,gp,0x1
 600:	0011e193          	or	gp,gp,1
 604:	05d00893          	li	a7,93
 608:	00018513          	mv	a0,gp
 60c:	00000073          	ecall

0000000000000610 <pass>:
 610:	0ff0000f          	fence
 614:	00100193          	li	gp,1
 618:	05d00893          	li	a7,93
 61c:	00000513          	li	a0,0
 620:	00000073          	ecall
 624:	c0001073          	unimp
 628:	0000                	.2byte	0x0
 62a:	0000                	.2byte	0x0
 62c:	0000                	.2byte	0x0
 62e:	0000                	.2byte	0x0
 630:	0000                	.2byte	0x0
 632:	0000                	.2byte	0x0
 634:	0000                	.2byte	0x0
 636:	0000                	.2byte	0x0
 638:	0000                	.2byte	0x0
 63a:	0000                	.2byte	0x0
 63c:	0000                	.2byte	0x0
 63e:	0000                	.2byte	0x0
 640:	0000                	.2byte	0x0
 642:	0000                	.2byte	0x0
