
sraiw.out:     file format elf64-littleriscv


Disassembly of section .text.init:

0000000000000000 <_start>:
   0:	03c0006f          	j	3c <reset_vector>

0000000000000004 <trap_vector>:
   4:	34202f73          	csrr	t5,mcause
   8:	00800f93          	li	t6,8
   c:	03ff0263          	beq	t5,t6,30 <write_tohost>
  10:	00900f93          	li	t6,9
  14:	01ff0e63          	beq	t5,t6,30 <write_tohost>
  18:	00b00f93          	li	t6,11
  1c:	01ff0a63          	beq	t5,t6,30 <write_tohost>
  20:	34202f73          	csrr	t5,mcause
  24:	000f5463          	bgez	t5,2c <handle_exception>
  28:	0040006f          	j	2c <handle_exception>

000000000000002c <handle_exception>:
  2c:	5391e193          	or	gp,gp,1337

0000000000000030 <write_tohost>:
  30:	10000f17          	auipc	t5,0x10000
  34:	fc3f2823          	sw	gp,-48(t5) # 10000000 <tohost>
  38:	0000006f          	j	38 <write_tohost+0x8>

000000000000003c <reset_vector>:
  3c:	b0005073          	csrw	mcycle,0
  40:	b0205073          	csrw	minstret,0
  44:	00000093          	li	ra,0
  48:	00000113          	li	sp,0
  4c:	00000193          	li	gp,0
  50:	00000213          	li	tp,0
  54:	00000293          	li	t0,0
  58:	00000313          	li	t1,0
  5c:	00000393          	li	t2,0
  60:	00000413          	li	s0,0
  64:	00000493          	li	s1,0
  68:	00000513          	li	a0,0
  6c:	00000593          	li	a1,0
  70:	00000613          	li	a2,0
  74:	00000693          	li	a3,0
  78:	00000713          	li	a4,0
  7c:	00000793          	li	a5,0
  80:	00000813          	li	a6,0
  84:	00000893          	li	a7,0
  88:	00000913          	li	s2,0
  8c:	00000993          	li	s3,0
  90:	00000a13          	li	s4,0
  94:	00000a93          	li	s5,0
  98:	00000b13          	li	s6,0
  9c:	00000b93          	li	s7,0
  a0:	00000c13          	li	s8,0
  a4:	00000c93          	li	s9,0
  a8:	00000d13          	li	s10,0
  ac:	00000d93          	li	s11,0
  b0:	00000e13          	li	t3,0
  b4:	00000e93          	li	t4,0
  b8:	00000f13          	li	t5,0
  bc:	00000f93          	li	t6,0
  c0:	00000193          	li	gp,0
  c4:	00000297          	auipc	t0,0x0
  c8:	f4028293          	add	t0,t0,-192 # 4 <trap_vector>
  cc:	30529073          	csrw	mtvec,t0
  d0:	30005073          	csrw	mstatus,0
  d4:	00000297          	auipc	t0,0x0
  d8:	01428293          	add	t0,t0,20 # e8 <test_2>
  dc:	34129073          	csrw	mepc,t0
  e0:	f1402573          	csrr	a0,mhartid
  e4:	30200073          	mret

00000000000000e8 <test_2>:
  e8:	00200193          	li	gp,2
  ec:	800000b7          	lui	ra,0x80000
  f0:	4000d71b          	sraw	a4,ra,0x0
  f4:	800003b7          	lui	t2,0x80000
  f8:	36771463          	bne	a4,t2,460 <fail>

00000000000000fc <test_3>:
  fc:	00300193          	li	gp,3
 100:	800000b7          	lui	ra,0x80000
 104:	4010d71b          	sraw	a4,ra,0x1
 108:	c00003b7          	lui	t2,0xc0000
 10c:	34771a63          	bne	a4,t2,460 <fail>

0000000000000110 <test_4>:
 110:	00400193          	li	gp,4
 114:	800000b7          	lui	ra,0x80000
 118:	4070d71b          	sraw	a4,ra,0x7
 11c:	ff0003b7          	lui	t2,0xff000
 120:	34771063          	bne	a4,t2,460 <fail>

0000000000000124 <test_5>:
 124:	00500193          	li	gp,5
 128:	800000b7          	lui	ra,0x80000
 12c:	40e0d71b          	sraw	a4,ra,0xe
 130:	fffe03b7          	lui	t2,0xfffe0
 134:	32771663          	bne	a4,t2,460 <fail>

0000000000000138 <test_6>:
 138:	00600193          	li	gp,6
 13c:	800000b7          	lui	ra,0x80000
 140:	0010809b          	addw	ra,ra,1 # ffffffff80000001 <_end+0xffffffff6fffffb9>
 144:	41f0d71b          	sraw	a4,ra,0x1f
 148:	fff00393          	li	t2,-1
 14c:	30771a63          	bne	a4,t2,460 <fail>

0000000000000150 <test_7>:
 150:	00700193          	li	gp,7
 154:	800000b7          	lui	ra,0x80000
 158:	fff0809b          	addw	ra,ra,-1 # 7fffffff <_end+0x6fffffb7>
 15c:	4000d71b          	sraw	a4,ra,0x0
 160:	800003b7          	lui	t2,0x80000
 164:	fff3839b          	addw	t2,t2,-1 # 7fffffff <_end+0x6fffffb7>
 168:	2e771c63          	bne	a4,t2,460 <fail>

000000000000016c <test_8>:
 16c:	00800193          	li	gp,8
 170:	800000b7          	lui	ra,0x80000
 174:	fff0809b          	addw	ra,ra,-1 # 7fffffff <_end+0x6fffffb7>
 178:	4010d71b          	sraw	a4,ra,0x1
 17c:	400003b7          	lui	t2,0x40000
 180:	fff3839b          	addw	t2,t2,-1 # 3fffffff <_end+0x2fffffb7>
 184:	2c771e63          	bne	a4,t2,460 <fail>

0000000000000188 <test_9>:
 188:	00900193          	li	gp,9
 18c:	800000b7          	lui	ra,0x80000
 190:	fff0809b          	addw	ra,ra,-1 # 7fffffff <_end+0x6fffffb7>
 194:	4070d71b          	sraw	a4,ra,0x7
 198:	010003b7          	lui	t2,0x1000
 19c:	fff3839b          	addw	t2,t2,-1 # ffffff <begin_signature+0xffbfff>
 1a0:	2c771063          	bne	a4,t2,460 <fail>

00000000000001a4 <test_10>:
 1a4:	00a00193          	li	gp,10
 1a8:	800000b7          	lui	ra,0x80000
 1ac:	fff0809b          	addw	ra,ra,-1 # 7fffffff <_end+0x6fffffb7>
 1b0:	40e0d71b          	sraw	a4,ra,0xe
 1b4:	000203b7          	lui	t2,0x20
 1b8:	fff3839b          	addw	t2,t2,-1 # 1ffff <begin_signature+0x1bfff>
 1bc:	2a771263          	bne	a4,t2,460 <fail>

00000000000001c0 <test_11>:
 1c0:	00b00193          	li	gp,11
 1c4:	800000b7          	lui	ra,0x80000
 1c8:	fff0809b          	addw	ra,ra,-1 # 7fffffff <_end+0x6fffffb7>
 1cc:	41f0d71b          	sraw	a4,ra,0x1f
 1d0:	00000393          	li	t2,0
 1d4:	28771663          	bne	a4,t2,460 <fail>

00000000000001d8 <test_12>:
 1d8:	00c00193          	li	gp,12
 1dc:	818180b7          	lui	ra,0x81818
 1e0:	1810809b          	addw	ra,ra,385 # ffffffff81818181 <_end+0xffffffff71818139>
 1e4:	4000d71b          	sraw	a4,ra,0x0
 1e8:	818183b7          	lui	t2,0x81818
 1ec:	1813839b          	addw	t2,t2,385 # ffffffff81818181 <_end+0xffffffff71818139>
 1f0:	26771863          	bne	a4,t2,460 <fail>

00000000000001f4 <test_13>:
 1f4:	00d00193          	li	gp,13
 1f8:	818180b7          	lui	ra,0x81818
 1fc:	1810809b          	addw	ra,ra,385 # ffffffff81818181 <_end+0xffffffff71818139>
 200:	4010d71b          	sraw	a4,ra,0x1
 204:	c0c0c3b7          	lui	t2,0xc0c0c
 208:	0c03839b          	addw	t2,t2,192 # ffffffffc0c0c0c0 <_end+0xffffffffb0c0c078>
 20c:	24771a63          	bne	a4,t2,460 <fail>

0000000000000210 <test_14>:
 210:	00e00193          	li	gp,14
 214:	818180b7          	lui	ra,0x81818
 218:	1810809b          	addw	ra,ra,385 # ffffffff81818181 <_end+0xffffffff71818139>
 21c:	4070d71b          	sraw	a4,ra,0x7
 220:	ff0303b7          	lui	t2,0xff030
 224:	3033839b          	addw	t2,t2,771 # ffffffffff030303 <_end+0xffffffffef0302bb>
 228:	22771c63          	bne	a4,t2,460 <fail>

000000000000022c <test_15>:
 22c:	00f00193          	li	gp,15
 230:	818180b7          	lui	ra,0x81818
 234:	1810809b          	addw	ra,ra,385 # ffffffff81818181 <_end+0xffffffff71818139>
 238:	40e0d71b          	sraw	a4,ra,0xe
 23c:	fffe03b7          	lui	t2,0xfffe0
 240:	6063839b          	addw	t2,t2,1542 # fffffffffffe0606 <_end+0xffffffffeffe05be>
 244:	20771e63          	bne	a4,t2,460 <fail>

0000000000000248 <test_16>:
 248:	01000193          	li	gp,16
 24c:	818180b7          	lui	ra,0x81818
 250:	1810809b          	addw	ra,ra,385 # ffffffff81818181 <_end+0xffffffff71818139>
 254:	41f0d71b          	sraw	a4,ra,0x1f
 258:	fff00393          	li	t2,-1
 25c:	20771263          	bne	a4,t2,460 <fail>

0000000000000260 <test_44>:
 260:	02c00193          	li	gp,44
 264:	fff120b7          	lui	ra,0xfff12
 268:	3450809b          	addw	ra,ra,837 # fffffffffff12345 <_end+0xffffffffeff122fd>
 26c:	00c09093          	sll	ra,ra,0xc
 270:	67808093          	add	ra,ra,1656
 274:	4000d71b          	sraw	a4,ra,0x0
 278:	123453b7          	lui	t2,0x12345
 27c:	6783839b          	addw	t2,t2,1656 # 12345678 <_end+0x2345630>
 280:	1e771063          	bne	a4,t2,460 <fail>

0000000000000284 <test_45>:
 284:	02d00193          	li	gp,45
 288:	fff120b7          	lui	ra,0xfff12
 28c:	3450809b          	addw	ra,ra,837 # fffffffffff12345 <_end+0xffffffffeff122fd>
 290:	00c09093          	sll	ra,ra,0xc
 294:	67808093          	add	ra,ra,1656
 298:	4040d71b          	sraw	a4,ra,0x4
 29c:	012343b7          	lui	t2,0x1234
 2a0:	5673839b          	addw	t2,t2,1383 # 1234567 <begin_signature+0x1230567>
 2a4:	1a771e63          	bne	a4,t2,460 <fail>

00000000000002a8 <test_46>:
 2a8:	02e00193          	li	gp,46
 2ac:	000920b7          	lui	ra,0x92
 2b0:	3450809b          	addw	ra,ra,837 # 92345 <begin_signature+0x8e345>
 2b4:	00c09093          	sll	ra,ra,0xc
 2b8:	67808093          	add	ra,ra,1656
 2bc:	4000d71b          	sraw	a4,ra,0x0
 2c0:	923453b7          	lui	t2,0x92345
 2c4:	6783839b          	addw	t2,t2,1656 # ffffffff92345678 <_end+0xffffffff82345630>
 2c8:	18771c63          	bne	a4,t2,460 <fail>

00000000000002cc <test_47>:
 2cc:	02f00193          	li	gp,47
 2d0:	000920b7          	lui	ra,0x92
 2d4:	3450809b          	addw	ra,ra,837 # 92345 <begin_signature+0x8e345>
 2d8:	00c09093          	sll	ra,ra,0xc
 2dc:	67808093          	add	ra,ra,1656
 2e0:	4040d71b          	sraw	a4,ra,0x4
 2e4:	f92343b7          	lui	t2,0xf9234
 2e8:	5673839b          	addw	t2,t2,1383 # fffffffff9234567 <_end+0xffffffffe923451f>
 2ec:	16771a63          	bne	a4,t2,460 <fail>

00000000000002f0 <test_17>:
 2f0:	01100193          	li	gp,17
 2f4:	800000b7          	lui	ra,0x80000
 2f8:	4070d09b          	sraw	ra,ra,0x7
 2fc:	ff0003b7          	lui	t2,0xff000
 300:	16709063          	bne	ra,t2,460 <fail>

0000000000000304 <test_18>:
 304:	01200193          	li	gp,18
 308:	00000213          	li	tp,0
 30c:	800000b7          	lui	ra,0x80000
 310:	4070d71b          	sraw	a4,ra,0x7
 314:	00070313          	mv	t1,a4
 318:	00120213          	add	tp,tp,1 # 1 <_start+0x1>
 31c:	00200293          	li	t0,2
 320:	fe5216e3          	bne	tp,t0,30c <test_18+0x8>
 324:	ff0003b7          	lui	t2,0xff000
 328:	12731c63          	bne	t1,t2,460 <fail>

000000000000032c <test_19>:
 32c:	01300193          	li	gp,19
 330:	00000213          	li	tp,0
 334:	800000b7          	lui	ra,0x80000
 338:	40e0d71b          	sraw	a4,ra,0xe
 33c:	00000013          	nop
 340:	00070313          	mv	t1,a4
 344:	00120213          	add	tp,tp,1 # 1 <_start+0x1>
 348:	00200293          	li	t0,2
 34c:	fe5214e3          	bne	tp,t0,334 <test_19+0x8>
 350:	fffe03b7          	lui	t2,0xfffe0
 354:	10731663          	bne	t1,t2,460 <fail>

0000000000000358 <test_20>:
 358:	01400193          	li	gp,20
 35c:	00000213          	li	tp,0
 360:	800000b7          	lui	ra,0x80000
 364:	0010809b          	addw	ra,ra,1 # ffffffff80000001 <_end+0xffffffff6fffffb9>
 368:	41f0d71b          	sraw	a4,ra,0x1f
 36c:	00000013          	nop
 370:	00000013          	nop
 374:	00070313          	mv	t1,a4
 378:	00120213          	add	tp,tp,1 # 1 <_start+0x1>
 37c:	00200293          	li	t0,2
 380:	fe5210e3          	bne	tp,t0,360 <test_20+0x8>
 384:	fff00393          	li	t2,-1
 388:	0c731c63          	bne	t1,t2,460 <fail>

000000000000038c <test_21>:
 38c:	01500193          	li	gp,21
 390:	00000213          	li	tp,0
 394:	800000b7          	lui	ra,0x80000
 398:	4070d71b          	sraw	a4,ra,0x7
 39c:	00120213          	add	tp,tp,1 # 1 <_start+0x1>
 3a0:	00200293          	li	t0,2
 3a4:	fe5218e3          	bne	tp,t0,394 <test_21+0x8>
 3a8:	ff0003b7          	lui	t2,0xff000
 3ac:	0a771a63          	bne	a4,t2,460 <fail>

00000000000003b0 <test_22>:
 3b0:	01600193          	li	gp,22
 3b4:	00000213          	li	tp,0
 3b8:	800000b7          	lui	ra,0x80000
 3bc:	00000013          	nop
 3c0:	40e0d71b          	sraw	a4,ra,0xe
 3c4:	00120213          	add	tp,tp,1 # 1 <_start+0x1>
 3c8:	00200293          	li	t0,2
 3cc:	fe5216e3          	bne	tp,t0,3b8 <test_22+0x8>
 3d0:	fffe03b7          	lui	t2,0xfffe0
 3d4:	08771663          	bne	a4,t2,460 <fail>

00000000000003d8 <test_23>:
 3d8:	01700193          	li	gp,23
 3dc:	00000213          	li	tp,0
 3e0:	800000b7          	lui	ra,0x80000
 3e4:	0010809b          	addw	ra,ra,1 # ffffffff80000001 <_end+0xffffffff6fffffb9>
 3e8:	00000013          	nop
 3ec:	00000013          	nop
 3f0:	41f0d71b          	sraw	a4,ra,0x1f
 3f4:	00120213          	add	tp,tp,1 # 1 <_start+0x1>
 3f8:	00200293          	li	t0,2
 3fc:	fe5212e3          	bne	tp,t0,3e0 <test_23+0x8>
 400:	fff00393          	li	t2,-1
 404:	04771e63          	bne	a4,t2,460 <fail>

0000000000000408 <test_24>:
 408:	01800193          	li	gp,24
 40c:	41f0509b          	sraw	ra,zero,0x1f
 410:	00000393          	li	t2,0
 414:	04709663          	bne	ra,t2,460 <fail>

0000000000000418 <test_25>:
 418:	01900193          	li	gp,25
 41c:	01f00093          	li	ra,31
 420:	41c0d01b          	sraw	zero,ra,0x1c
 424:	00000393          	li	t2,0
 428:	02701c63          	bne	zero,t2,460 <fail>

000000000000042c <test_26>:
 42c:	01a00193          	li	gp,26
 430:	0070009b          	addw	ra,zero,7
 434:	03509093          	sll	ra,ra,0x35
 438:	41c0d71b          	sraw	a4,ra,0x1c
 43c:	00000393          	li	t2,0
 440:	02771063          	bne	a4,t2,460 <fail>

0000000000000444 <test_27>:
 444:	01b00193          	li	gp,27
 448:	00f0009b          	addw	ra,zero,15
 44c:	01c09093          	sll	ra,ra,0x1c
 450:	4040d71b          	sraw	a4,ra,0x4
 454:	ff0003b7          	lui	t2,0xff000
 458:	00771463          	bne	a4,t2,460 <fail>
 45c:	02301063          	bne	zero,gp,47c <pass>

0000000000000460 <fail>:
 460:	0ff0000f          	fence
 464:	00018063          	beqz	gp,464 <fail+0x4>
 468:	00119193          	sll	gp,gp,0x1
 46c:	0011e193          	or	gp,gp,1
 470:	05d00893          	li	a7,93
 474:	00018513          	mv	a0,gp
 478:	00000073          	ecall

000000000000047c <pass>:
 47c:	0ff0000f          	fence
 480:	00100193          	li	gp,1
 484:	05d00893          	li	a7,93
 488:	00000513          	li	a0,0
 48c:	00000073          	ecall
 490:	c0001073          	unimp
 494:	0000                	.2byte	0x0
 496:	0000                	.2byte	0x0
 498:	0000                	.2byte	0x0
 49a:	0000                	.2byte	0x0
 49c:	0000                	.2byte	0x0
 49e:	0000                	.2byte	0x0
 4a0:	0000                	.2byte	0x0
 4a2:	0000                	.2byte	0x0
 4a4:	0000                	.2byte	0x0
 4a6:	0000                	.2byte	0x0
 4a8:	0000                	.2byte	0x0
 4aa:	0000                	.2byte	0x0
 4ac:	0000                	.2byte	0x0
 4ae:	0000                	.2byte	0x0
 4b0:	0000                	.2byte	0x0
 4b2:	0000                	.2byte	0x0
 4b4:	0000                	.2byte	0x0
 4b6:	0000                	.2byte	0x0
 4b8:	0000                	.2byte	0x0
 4ba:	0000                	.2byte	0x0
 4bc:	0000                	.2byte	0x0
 4be:	0000                	.2byte	0x0
 4c0:	0000                	.2byte	0x0
 4c2:	0000                	.2byte	0x0
