
srl.out:     file format elf64-littleriscv


Disassembly of section .text.init:

0000000000000000 <_start>:
   0:	00000093          	li	ra,0
   4:	00000113          	li	sp,0
   8:	00000193          	li	gp,0
   c:	00000213          	li	tp,0
  10:	00000293          	li	t0,0
  14:	00000313          	li	t1,0
  18:	00000393          	li	t2,0
  1c:	00000413          	li	s0,0
  20:	00000493          	li	s1,0
  24:	00000513          	li	a0,0
  28:	00000593          	li	a1,0
  2c:	00000613          	li	a2,0
  30:	00000693          	li	a3,0
  34:	00000713          	li	a4,0
  38:	00000793          	li	a5,0
  3c:	00000813          	li	a6,0
  40:	00000893          	li	a7,0
  44:	00000913          	li	s2,0
  48:	00000993          	li	s3,0
  4c:	00000a13          	li	s4,0
  50:	00000a93          	li	s5,0
  54:	00000b13          	li	s6,0
  58:	00000b93          	li	s7,0
  5c:	00000c13          	li	s8,0
  60:	00000c93          	li	s9,0
  64:	00000d13          	li	s10,0
  68:	00000d93          	li	s11,0
  6c:	00000e13          	li	t3,0
  70:	00000e93          	li	t4,0
  74:	00000f13          	li	t5,0
  78:	00000f93          	li	t6,0
  7c:	00000193          	li	gp,0

0000000000000080 <test_2>:
  80:	00200193          	li	gp,2
  84:	800000b7          	lui	ra,0x80000
  88:	00000113          	li	sp,0
  8c:	0020d733          	srl	a4,ra,sp
  90:	800003b7          	lui	t2,0x80000
  94:	5e771a63          	bne	a4,t2,688 <fail>

0000000000000098 <test_3>:
  98:	00300193          	li	gp,3
  9c:	800000b7          	lui	ra,0x80000
  a0:	00100113          	li	sp,1
  a4:	0020d733          	srl	a4,ra,sp
  a8:	0010039b          	addw	t2,zero,1
  ac:	02139393          	sll	t2,t2,0x21
  b0:	fff38393          	add	t2,t2,-1 # ffffffff7fffffff <_end+0xffffffff6fffffb7>
  b4:	01e39393          	sll	t2,t2,0x1e
  b8:	5c771863          	bne	a4,t2,688 <fail>

00000000000000bc <test_4>:
  bc:	00400193          	li	gp,4
  c0:	800000b7          	lui	ra,0x80000
  c4:	00700113          	li	sp,7
  c8:	0020d733          	srl	a4,ra,sp
  cc:	0010039b          	addw	t2,zero,1
  d0:	02139393          	sll	t2,t2,0x21
  d4:	fff38393          	add	t2,t2,-1
  d8:	01839393          	sll	t2,t2,0x18
  dc:	5a771663          	bne	a4,t2,688 <fail>

00000000000000e0 <test_5>:
  e0:	00500193          	li	gp,5
  e4:	800000b7          	lui	ra,0x80000
  e8:	00e00113          	li	sp,14
  ec:	0020d733          	srl	a4,ra,sp
  f0:	0010039b          	addw	t2,zero,1
  f4:	02139393          	sll	t2,t2,0x21
  f8:	fff38393          	add	t2,t2,-1
  fc:	01139393          	sll	t2,t2,0x11
 100:	58771463          	bne	a4,t2,688 <fail>

0000000000000104 <test_6>:
 104:	00600193          	li	gp,6
 108:	800000b7          	lui	ra,0x80000
 10c:	0010809b          	addw	ra,ra,1 # ffffffff80000001 <_end+0xffffffff6fffffb9>
 110:	01f00113          	li	sp,31
 114:	0020d733          	srl	a4,ra,sp
 118:	0010039b          	addw	t2,zero,1
 11c:	02139393          	sll	t2,t2,0x21
 120:	fff38393          	add	t2,t2,-1
 124:	56771263          	bne	a4,t2,688 <fail>

0000000000000128 <test_7>:
 128:	00700193          	li	gp,7
 12c:	fff00093          	li	ra,-1
 130:	00000113          	li	sp,0
 134:	0020d733          	srl	a4,ra,sp
 138:	fff00393          	li	t2,-1
 13c:	54771663          	bne	a4,t2,688 <fail>

0000000000000140 <test_8>:
 140:	00800193          	li	gp,8
 144:	fff00093          	li	ra,-1
 148:	00100113          	li	sp,1
 14c:	0020d733          	srl	a4,ra,sp
 150:	fff0039b          	addw	t2,zero,-1
 154:	03f39393          	sll	t2,t2,0x3f
 158:	fff38393          	add	t2,t2,-1
 15c:	52771663          	bne	a4,t2,688 <fail>

0000000000000160 <test_9>:
 160:	00900193          	li	gp,9
 164:	fff00093          	li	ra,-1
 168:	00700113          	li	sp,7
 16c:	0020d733          	srl	a4,ra,sp
 170:	0010039b          	addw	t2,zero,1
 174:	03939393          	sll	t2,t2,0x39
 178:	fff38393          	add	t2,t2,-1
 17c:	50771663          	bne	a4,t2,688 <fail>

0000000000000180 <test_10>:
 180:	00a00193          	li	gp,10
 184:	fff00093          	li	ra,-1
 188:	00e00113          	li	sp,14
 18c:	0020d733          	srl	a4,ra,sp
 190:	0010039b          	addw	t2,zero,1
 194:	03239393          	sll	t2,t2,0x32
 198:	fff38393          	add	t2,t2,-1
 19c:	4e771663          	bne	a4,t2,688 <fail>

00000000000001a0 <test_11>:
 1a0:	00b00193          	li	gp,11
 1a4:	fff00093          	li	ra,-1
 1a8:	01f00113          	li	sp,31
 1ac:	0020d733          	srl	a4,ra,sp
 1b0:	0010039b          	addw	t2,zero,1
 1b4:	02139393          	sll	t2,t2,0x21
 1b8:	fff38393          	add	t2,t2,-1
 1bc:	4c771663          	bne	a4,t2,688 <fail>

00000000000001c0 <test_12>:
 1c0:	00c00193          	li	gp,12
 1c4:	212120b7          	lui	ra,0x21212
 1c8:	1210809b          	addw	ra,ra,289 # 21212121 <_end+0x112120d9>
 1cc:	00000113          	li	sp,0
 1d0:	0020d733          	srl	a4,ra,sp
 1d4:	212123b7          	lui	t2,0x21212
 1d8:	1213839b          	addw	t2,t2,289 # 21212121 <_end+0x112120d9>
 1dc:	4a771663          	bne	a4,t2,688 <fail>

00000000000001e0 <test_13>:
 1e0:	00d00193          	li	gp,13
 1e4:	212120b7          	lui	ra,0x21212
 1e8:	1210809b          	addw	ra,ra,289 # 21212121 <_end+0x112120d9>
 1ec:	00100113          	li	sp,1
 1f0:	0020d733          	srl	a4,ra,sp
 1f4:	109093b7          	lui	t2,0x10909
 1f8:	0903839b          	addw	t2,t2,144 # 10909090 <_end+0x909048>
 1fc:	48771663          	bne	a4,t2,688 <fail>

0000000000000200 <test_14>:
 200:	00e00193          	li	gp,14
 204:	212120b7          	lui	ra,0x21212
 208:	1210809b          	addw	ra,ra,289 # 21212121 <_end+0x112120d9>
 20c:	00700113          	li	sp,7
 210:	0020d733          	srl	a4,ra,sp
 214:	004243b7          	lui	t2,0x424
 218:	2423839b          	addw	t2,t2,578 # 424242 <begin_signature+0x420242>
 21c:	46771663          	bne	a4,t2,688 <fail>

0000000000000220 <test_15>:
 220:	00f00193          	li	gp,15
 224:	212120b7          	lui	ra,0x21212
 228:	1210809b          	addw	ra,ra,289 # 21212121 <_end+0x112120d9>
 22c:	00e00113          	li	sp,14
 230:	0020d733          	srl	a4,ra,sp
 234:	000083b7          	lui	t2,0x8
 238:	4843839b          	addw	t2,t2,1156 # 8484 <begin_signature+0x4484>
 23c:	44771663          	bne	a4,t2,688 <fail>

0000000000000240 <test_16>:
 240:	01000193          	li	gp,16
 244:	212120b7          	lui	ra,0x21212
 248:	1210809b          	addw	ra,ra,289 # 21212121 <_end+0x112120d9>
 24c:	01f00113          	li	sp,31
 250:	0020d733          	srl	a4,ra,sp
 254:	00000393          	li	t2,0
 258:	42771863          	bne	a4,t2,688 <fail>

000000000000025c <test_17>:
 25c:	01100193          	li	gp,17
 260:	212120b7          	lui	ra,0x21212
 264:	1210809b          	addw	ra,ra,289 # 21212121 <_end+0x112120d9>
 268:	fc000113          	li	sp,-64
 26c:	0020d733          	srl	a4,ra,sp
 270:	212123b7          	lui	t2,0x21212
 274:	1213839b          	addw	t2,t2,289 # 21212121 <_end+0x112120d9>
 278:	40771863          	bne	a4,t2,688 <fail>

000000000000027c <test_18>:
 27c:	01200193          	li	gp,18
 280:	212120b7          	lui	ra,0x21212
 284:	1210809b          	addw	ra,ra,289 # 21212121 <_end+0x112120d9>
 288:	fc100113          	li	sp,-63
 28c:	0020d733          	srl	a4,ra,sp
 290:	109093b7          	lui	t2,0x10909
 294:	0903839b          	addw	t2,t2,144 # 10909090 <_end+0x909048>
 298:	3e771863          	bne	a4,t2,688 <fail>

000000000000029c <test_19>:
 29c:	01300193          	li	gp,19
 2a0:	212120b7          	lui	ra,0x21212
 2a4:	1210809b          	addw	ra,ra,289 # 21212121 <_end+0x112120d9>
 2a8:	fc700113          	li	sp,-57
 2ac:	0020d733          	srl	a4,ra,sp
 2b0:	004243b7          	lui	t2,0x424
 2b4:	2423839b          	addw	t2,t2,578 # 424242 <begin_signature+0x420242>
 2b8:	3c771863          	bne	a4,t2,688 <fail>

00000000000002bc <test_20>:
 2bc:	01400193          	li	gp,20
 2c0:	212120b7          	lui	ra,0x21212
 2c4:	1210809b          	addw	ra,ra,289 # 21212121 <_end+0x112120d9>
 2c8:	fce00113          	li	sp,-50
 2cc:	0020d733          	srl	a4,ra,sp
 2d0:	000083b7          	lui	t2,0x8
 2d4:	4843839b          	addw	t2,t2,1156 # 8484 <begin_signature+0x4484>
 2d8:	3a771863          	bne	a4,t2,688 <fail>

00000000000002dc <test_21>:
 2dc:	01500193          	li	gp,21
 2e0:	212120b7          	lui	ra,0x21212
 2e4:	1210809b          	addw	ra,ra,289 # 21212121 <_end+0x112120d9>
 2e8:	fff00113          	li	sp,-1
 2ec:	0020d733          	srl	a4,ra,sp
 2f0:	00000393          	li	t2,0
 2f4:	38771a63          	bne	a4,t2,688 <fail>

00000000000002f8 <test_22>:
 2f8:	01600193          	li	gp,22
 2fc:	0010009b          	addw	ra,zero,1
 300:	01f09093          	sll	ra,ra,0x1f
 304:	00700113          	li	sp,7
 308:	0020d0b3          	srl	ra,ra,sp
 30c:	010003b7          	lui	t2,0x1000
 310:	36709c63          	bne	ra,t2,688 <fail>

0000000000000314 <test_23>:
 314:	01700193          	li	gp,23
 318:	0010009b          	addw	ra,zero,1
 31c:	01f09093          	sll	ra,ra,0x1f
 320:	00e00113          	li	sp,14
 324:	0020d133          	srl	sp,ra,sp
 328:	000203b7          	lui	t2,0x20
 32c:	34711e63          	bne	sp,t2,688 <fail>

0000000000000330 <test_24>:
 330:	01800193          	li	gp,24
 334:	00700093          	li	ra,7
 338:	0010d0b3          	srl	ra,ra,ra
 33c:	00000393          	li	t2,0
 340:	34709463          	bne	ra,t2,688 <fail>

0000000000000344 <test_25>:
 344:	01900193          	li	gp,25
 348:	00000213          	li	tp,0
 34c:	0010009b          	addw	ra,zero,1
 350:	01f09093          	sll	ra,ra,0x1f
 354:	00700113          	li	sp,7
 358:	0020d733          	srl	a4,ra,sp
 35c:	00070313          	mv	t1,a4
 360:	00120213          	add	tp,tp,1 # 1 <_start+0x1>
 364:	00200293          	li	t0,2
 368:	fe5212e3          	bne	tp,t0,34c <test_25+0x8>
 36c:	010003b7          	lui	t2,0x1000
 370:	30731c63          	bne	t1,t2,688 <fail>

0000000000000374 <test_26>:
 374:	01a00193          	li	gp,26
 378:	00000213          	li	tp,0
 37c:	0010009b          	addw	ra,zero,1
 380:	01f09093          	sll	ra,ra,0x1f
 384:	00e00113          	li	sp,14
 388:	0020d733          	srl	a4,ra,sp
 38c:	00000013          	nop
 390:	00070313          	mv	t1,a4
 394:	00120213          	add	tp,tp,1 # 1 <_start+0x1>
 398:	00200293          	li	t0,2
 39c:	fe5210e3          	bne	tp,t0,37c <test_26+0x8>
 3a0:	000203b7          	lui	t2,0x20
 3a4:	2e731263          	bne	t1,t2,688 <fail>

00000000000003a8 <test_27>:
 3a8:	01b00193          	li	gp,27
 3ac:	00000213          	li	tp,0
 3b0:	0010009b          	addw	ra,zero,1
 3b4:	01f09093          	sll	ra,ra,0x1f
 3b8:	01f00113          	li	sp,31
 3bc:	0020d733          	srl	a4,ra,sp
 3c0:	00000013          	nop
 3c4:	00000013          	nop
 3c8:	00070313          	mv	t1,a4
 3cc:	00120213          	add	tp,tp,1 # 1 <_start+0x1>
 3d0:	00200293          	li	t0,2
 3d4:	fc521ee3          	bne	tp,t0,3b0 <test_27+0x8>
 3d8:	00100393          	li	t2,1
 3dc:	2a731663          	bne	t1,t2,688 <fail>

00000000000003e0 <test_28>:
 3e0:	01c00193          	li	gp,28
 3e4:	00000213          	li	tp,0
 3e8:	0010009b          	addw	ra,zero,1
 3ec:	01f09093          	sll	ra,ra,0x1f
 3f0:	00700113          	li	sp,7
 3f4:	0020d733          	srl	a4,ra,sp
 3f8:	00120213          	add	tp,tp,1 # 1 <_start+0x1>
 3fc:	00200293          	li	t0,2
 400:	fe5214e3          	bne	tp,t0,3e8 <test_28+0x8>
 404:	010003b7          	lui	t2,0x1000
 408:	28771063          	bne	a4,t2,688 <fail>

000000000000040c <test_29>:
 40c:	01d00193          	li	gp,29
 410:	00000213          	li	tp,0
 414:	0010009b          	addw	ra,zero,1
 418:	01f09093          	sll	ra,ra,0x1f
 41c:	00e00113          	li	sp,14
 420:	00000013          	nop
 424:	0020d733          	srl	a4,ra,sp
 428:	00120213          	add	tp,tp,1 # 1 <_start+0x1>
 42c:	00200293          	li	t0,2
 430:	fe5212e3          	bne	tp,t0,414 <test_29+0x8>
 434:	000203b7          	lui	t2,0x20
 438:	24771863          	bne	a4,t2,688 <fail>

000000000000043c <test_30>:
 43c:	01e00193          	li	gp,30
 440:	00000213          	li	tp,0
 444:	0010009b          	addw	ra,zero,1
 448:	01f09093          	sll	ra,ra,0x1f
 44c:	01f00113          	li	sp,31
 450:	00000013          	nop
 454:	00000013          	nop
 458:	0020d733          	srl	a4,ra,sp
 45c:	00120213          	add	tp,tp,1 # 1 <_start+0x1>
 460:	00200293          	li	t0,2
 464:	fe5210e3          	bne	tp,t0,444 <test_30+0x8>
 468:	00100393          	li	t2,1
 46c:	20771e63          	bne	a4,t2,688 <fail>

0000000000000470 <test_31>:
 470:	01f00193          	li	gp,31
 474:	00000213          	li	tp,0
 478:	0010009b          	addw	ra,zero,1
 47c:	01f09093          	sll	ra,ra,0x1f
 480:	00000013          	nop
 484:	00700113          	li	sp,7
 488:	0020d733          	srl	a4,ra,sp
 48c:	00120213          	add	tp,tp,1 # 1 <_start+0x1>
 490:	00200293          	li	t0,2
 494:	fe5212e3          	bne	tp,t0,478 <test_31+0x8>
 498:	010003b7          	lui	t2,0x1000
 49c:	1e771663          	bne	a4,t2,688 <fail>

00000000000004a0 <test_32>:
 4a0:	02000193          	li	gp,32
 4a4:	00000213          	li	tp,0
 4a8:	0010009b          	addw	ra,zero,1
 4ac:	01f09093          	sll	ra,ra,0x1f
 4b0:	00000013          	nop
 4b4:	00e00113          	li	sp,14
 4b8:	00000013          	nop
 4bc:	0020d733          	srl	a4,ra,sp
 4c0:	00120213          	add	tp,tp,1 # 1 <_start+0x1>
 4c4:	00200293          	li	t0,2
 4c8:	fe5210e3          	bne	tp,t0,4a8 <test_32+0x8>
 4cc:	000203b7          	lui	t2,0x20
 4d0:	1a771c63          	bne	a4,t2,688 <fail>

00000000000004d4 <test_33>:
 4d4:	02100193          	li	gp,33
 4d8:	00000213          	li	tp,0
 4dc:	0010009b          	addw	ra,zero,1
 4e0:	01f09093          	sll	ra,ra,0x1f
 4e4:	00000013          	nop
 4e8:	00000013          	nop
 4ec:	01f00113          	li	sp,31
 4f0:	0020d733          	srl	a4,ra,sp
 4f4:	00120213          	add	tp,tp,1 # 1 <_start+0x1>
 4f8:	00200293          	li	t0,2
 4fc:	fe5210e3          	bne	tp,t0,4dc <test_33+0x8>
 500:	00100393          	li	t2,1
 504:	18771263          	bne	a4,t2,688 <fail>

0000000000000508 <test_34>:
 508:	02200193          	li	gp,34
 50c:	00000213          	li	tp,0
 510:	00700113          	li	sp,7
 514:	0010009b          	addw	ra,zero,1
 518:	01f09093          	sll	ra,ra,0x1f
 51c:	0020d733          	srl	a4,ra,sp
 520:	00120213          	add	tp,tp,1 # 1 <_start+0x1>
 524:	00200293          	li	t0,2
 528:	fe5214e3          	bne	tp,t0,510 <test_34+0x8>
 52c:	010003b7          	lui	t2,0x1000
 530:	14771c63          	bne	a4,t2,688 <fail>

0000000000000534 <test_35>:
 534:	02300193          	li	gp,35
 538:	00000213          	li	tp,0
 53c:	00e00113          	li	sp,14
 540:	0010009b          	addw	ra,zero,1
 544:	01f09093          	sll	ra,ra,0x1f
 548:	00000013          	nop
 54c:	0020d733          	srl	a4,ra,sp
 550:	00120213          	add	tp,tp,1 # 1 <_start+0x1>
 554:	00200293          	li	t0,2
 558:	fe5212e3          	bne	tp,t0,53c <test_35+0x8>
 55c:	000203b7          	lui	t2,0x20
 560:	12771463          	bne	a4,t2,688 <fail>

0000000000000564 <test_36>:
 564:	02400193          	li	gp,36
 568:	00000213          	li	tp,0
 56c:	01f00113          	li	sp,31
 570:	0010009b          	addw	ra,zero,1
 574:	01f09093          	sll	ra,ra,0x1f
 578:	00000013          	nop
 57c:	00000013          	nop
 580:	0020d733          	srl	a4,ra,sp
 584:	00120213          	add	tp,tp,1 # 1 <_start+0x1>
 588:	00200293          	li	t0,2
 58c:	fe5210e3          	bne	tp,t0,56c <test_36+0x8>
 590:	00100393          	li	t2,1
 594:	0e771a63          	bne	a4,t2,688 <fail>

0000000000000598 <test_37>:
 598:	02500193          	li	gp,37
 59c:	00000213          	li	tp,0
 5a0:	00700113          	li	sp,7
 5a4:	00000013          	nop
 5a8:	0010009b          	addw	ra,zero,1
 5ac:	01f09093          	sll	ra,ra,0x1f
 5b0:	0020d733          	srl	a4,ra,sp
 5b4:	00120213          	add	tp,tp,1 # 1 <_start+0x1>
 5b8:	00200293          	li	t0,2
 5bc:	fe5212e3          	bne	tp,t0,5a0 <test_37+0x8>
 5c0:	010003b7          	lui	t2,0x1000
 5c4:	0c771263          	bne	a4,t2,688 <fail>

00000000000005c8 <test_38>:
 5c8:	02600193          	li	gp,38
 5cc:	00000213          	li	tp,0
 5d0:	00e00113          	li	sp,14
 5d4:	00000013          	nop
 5d8:	0010009b          	addw	ra,zero,1
 5dc:	01f09093          	sll	ra,ra,0x1f
 5e0:	00000013          	nop
 5e4:	0020d733          	srl	a4,ra,sp
 5e8:	00120213          	add	tp,tp,1 # 1 <_start+0x1>
 5ec:	00200293          	li	t0,2
 5f0:	fe5210e3          	bne	tp,t0,5d0 <test_38+0x8>
 5f4:	000203b7          	lui	t2,0x20
 5f8:	08771863          	bne	a4,t2,688 <fail>

00000000000005fc <test_39>:
 5fc:	02700193          	li	gp,39
 600:	00000213          	li	tp,0
 604:	01f00113          	li	sp,31
 608:	00000013          	nop
 60c:	00000013          	nop
 610:	0010009b          	addw	ra,zero,1
 614:	01f09093          	sll	ra,ra,0x1f
 618:	0020d733          	srl	a4,ra,sp
 61c:	00120213          	add	tp,tp,1 # 1 <_start+0x1>
 620:	00200293          	li	t0,2
 624:	fe5210e3          	bne	tp,t0,604 <test_39+0x8>
 628:	00100393          	li	t2,1
 62c:	04771e63          	bne	a4,t2,688 <fail>

0000000000000630 <test_40>:
 630:	02800193          	li	gp,40
 634:	00f00093          	li	ra,15
 638:	00105133          	srl	sp,zero,ra
 63c:	00000393          	li	t2,0
 640:	04711463          	bne	sp,t2,688 <fail>

0000000000000644 <test_41>:
 644:	02900193          	li	gp,41
 648:	02000093          	li	ra,32
 64c:	0000d133          	srl	sp,ra,zero
 650:	02000393          	li	t2,32
 654:	02711a63          	bne	sp,t2,688 <fail>

0000000000000658 <test_42>:
 658:	02a00193          	li	gp,42
 65c:	000050b3          	srl	ra,zero,zero
 660:	00000393          	li	t2,0
 664:	02709263          	bne	ra,t2,688 <fail>

0000000000000668 <test_43>:
 668:	02b00193          	li	gp,43
 66c:	40000093          	li	ra,1024
 670:	00001137          	lui	sp,0x1
 674:	8001011b          	addw	sp,sp,-2048 # 800 <pass+0x158>
 678:	0020d033          	srl	zero,ra,sp
 67c:	00000393          	li	t2,0
 680:	00701463          	bne	zero,t2,688 <fail>
 684:	02301263          	bne	zero,gp,6a8 <pass>

0000000000000688 <fail>:
 688:	0ff0000f          	fence
 68c:	00018063          	beqz	gp,68c <fail+0x4>
 690:	00119193          	sll	gp,gp,0x1
 694:	0011e193          	or	gp,gp,1
 698:	10000297          	auipc	t0,0x10000
 69c:	96828293          	add	t0,t0,-1688 # 10000000 <tohost>
 6a0:	0032a023          	sw	gp,0(t0)
 6a4:	0000006f          	j	6a4 <fail+0x1c>

00000000000006a8 <pass>:
 6a8:	0ff0000f          	fence
 6ac:	00100193          	li	gp,1
 6b0:	10000297          	auipc	t0,0x10000
 6b4:	95028293          	add	t0,t0,-1712 # 10000000 <tohost>
 6b8:	0032a023          	sw	gp,0(t0)
 6bc:	0000006f          	j	6bc <pass+0x14>
 6c0:	c0001073          	unimp
