
sw.out:     file format elf64-littleriscv


Disassembly of section .text.init:

0000000000000000 <_start>:
   0:	00000093          	li	ra,0
   4:	00000113          	li	sp,0
   8:	00000193          	li	gp,0
   c:	00000213          	li	tp,0
  10:	00000293          	li	t0,0
  14:	00000313          	li	t1,0
  18:	00000393          	li	t2,0
  1c:	00000413          	li	s0,0
  20:	00000493          	li	s1,0
  24:	00000513          	li	a0,0
  28:	00000593          	li	a1,0
  2c:	00000613          	li	a2,0
  30:	00000693          	li	a3,0
  34:	00000713          	li	a4,0
  38:	00000793          	li	a5,0
  3c:	00000813          	li	a6,0
  40:	00000893          	li	a7,0
  44:	00000913          	li	s2,0
  48:	00000993          	li	s3,0
  4c:	00000a13          	li	s4,0
  50:	00000a93          	li	s5,0
  54:	00000b13          	li	s6,0
  58:	00000b93          	li	s7,0
  5c:	00000c13          	li	s8,0
  60:	00000c93          	li	s9,0
  64:	00000d13          	li	s10,0
  68:	00000d93          	li	s11,0
  6c:	00000e13          	li	t3,0
  70:	00000e93          	li	t4,0
  74:	00000f13          	li	t5,0
  78:	00000f93          	li	t6,0
  7c:	00000193          	li	gp,0

0000000000000080 <test_2>:
  80:	00200193          	li	gp,2
  84:	00004097          	auipc	ra,0x4
  88:	f7c08093          	add	ra,ra,-132 # 4000 <begin_signature>
  8c:	00aa0137          	lui	sp,0xaa0
  90:	0aa1011b          	addw	sp,sp,170 # aa00aa <end_signature+0xa9c07a>
  94:	00000797          	auipc	a5,0x0
  98:	01478793          	add	a5,a5,20 # a8 <test_2+0x28>
  9c:	0020a023          	sw	sp,0(ra)
  a0:	0000a703          	lw	a4,0(ra)
  a4:	0080006f          	j	ac <test_2+0x2c>
  a8:	00010713          	mv	a4,sp
  ac:	00aa03b7          	lui	t2,0xaa0
  b0:	0aa3839b          	addw	t2,t2,170 # aa00aa <end_signature+0xa9c07a>
  b4:	4c771863          	bne	a4,t2,584 <fail>

00000000000000b8 <test_3>:
  b8:	00300193          	li	gp,3
  bc:	00004097          	auipc	ra,0x4
  c0:	f4408093          	add	ra,ra,-188 # 4000 <begin_signature>
  c4:	aa00b137          	lui	sp,0xaa00b
  c8:	a001011b          	addw	sp,sp,-1536 # ffffffffaa00aa00 <_end+0xffffffff9a00a9b8>
  cc:	00000797          	auipc	a5,0x0
  d0:	01478793          	add	a5,a5,20 # e0 <test_3+0x28>
  d4:	0020a223          	sw	sp,4(ra)
  d8:	0040a703          	lw	a4,4(ra)
  dc:	0080006f          	j	e4 <test_3+0x2c>
  e0:	00010713          	mv	a4,sp
  e4:	aa00b3b7          	lui	t2,0xaa00b
  e8:	a003839b          	addw	t2,t2,-1536 # ffffffffaa00aa00 <_end+0xffffffff9a00a9b8>
  ec:	48771c63          	bne	a4,t2,584 <fail>

00000000000000f0 <test_4>:
  f0:	00400193          	li	gp,4
  f4:	00004097          	auipc	ra,0x4
  f8:	f0c08093          	add	ra,ra,-244 # 4000 <begin_signature>
  fc:	0aa01137          	lui	sp,0xaa01
 100:	aa01011b          	addw	sp,sp,-1376 # aa00aa0 <end_signature+0xa9fca70>
 104:	00000797          	auipc	a5,0x0
 108:	01478793          	add	a5,a5,20 # 118 <test_4+0x28>
 10c:	0020a423          	sw	sp,8(ra)
 110:	0080a703          	lw	a4,8(ra)
 114:	0080006f          	j	11c <test_4+0x2c>
 118:	00010713          	mv	a4,sp
 11c:	0aa013b7          	lui	t2,0xaa01
 120:	aa03839b          	addw	t2,t2,-1376 # aa00aa0 <end_signature+0xa9fca70>
 124:	46771063          	bne	a4,t2,584 <fail>

0000000000000128 <test_5>:
 128:	00500193          	li	gp,5
 12c:	00004097          	auipc	ra,0x4
 130:	ed408093          	add	ra,ra,-300 # 4000 <begin_signature>
 134:	a00aa137          	lui	sp,0xa00aa
 138:	00a1011b          	addw	sp,sp,10 # ffffffffa00aa00a <_end+0xffffffff900a9fc2>
 13c:	00000797          	auipc	a5,0x0
 140:	01478793          	add	a5,a5,20 # 150 <test_5+0x28>
 144:	0020a623          	sw	sp,12(ra)
 148:	00c0a703          	lw	a4,12(ra)
 14c:	0080006f          	j	154 <test_5+0x2c>
 150:	00010713          	mv	a4,sp
 154:	a00aa3b7          	lui	t2,0xa00aa
 158:	00a3839b          	addw	t2,t2,10 # ffffffffa00aa00a <_end+0xffffffff900a9fc2>
 15c:	42771463          	bne	a4,t2,584 <fail>

0000000000000160 <test_6>:
 160:	00600193          	li	gp,6
 164:	00004097          	auipc	ra,0x4
 168:	eb808093          	add	ra,ra,-328 # 401c <tdat8>
 16c:	00aa0137          	lui	sp,0xaa0
 170:	0aa1011b          	addw	sp,sp,170 # aa00aa <end_signature+0xa9c07a>
 174:	00000797          	auipc	a5,0x0
 178:	01478793          	add	a5,a5,20 # 188 <test_6+0x28>
 17c:	fe20aa23          	sw	sp,-12(ra)
 180:	ff40a703          	lw	a4,-12(ra)
 184:	0080006f          	j	18c <test_6+0x2c>
 188:	00010713          	mv	a4,sp
 18c:	00aa03b7          	lui	t2,0xaa0
 190:	0aa3839b          	addw	t2,t2,170 # aa00aa <end_signature+0xa9c07a>
 194:	3e771863          	bne	a4,t2,584 <fail>

0000000000000198 <test_7>:
 198:	00700193          	li	gp,7
 19c:	00004097          	auipc	ra,0x4
 1a0:	e8008093          	add	ra,ra,-384 # 401c <tdat8>
 1a4:	aa00b137          	lui	sp,0xaa00b
 1a8:	a001011b          	addw	sp,sp,-1536 # ffffffffaa00aa00 <_end+0xffffffff9a00a9b8>
 1ac:	00000797          	auipc	a5,0x0
 1b0:	01478793          	add	a5,a5,20 # 1c0 <test_7+0x28>
 1b4:	fe20ac23          	sw	sp,-8(ra)
 1b8:	ff80a703          	lw	a4,-8(ra)
 1bc:	0080006f          	j	1c4 <test_7+0x2c>
 1c0:	00010713          	mv	a4,sp
 1c4:	aa00b3b7          	lui	t2,0xaa00b
 1c8:	a003839b          	addw	t2,t2,-1536 # ffffffffaa00aa00 <_end+0xffffffff9a00a9b8>
 1cc:	3a771c63          	bne	a4,t2,584 <fail>

00000000000001d0 <test_8>:
 1d0:	00800193          	li	gp,8
 1d4:	00004097          	auipc	ra,0x4
 1d8:	e4808093          	add	ra,ra,-440 # 401c <tdat8>
 1dc:	0aa01137          	lui	sp,0xaa01
 1e0:	aa01011b          	addw	sp,sp,-1376 # aa00aa0 <end_signature+0xa9fca70>
 1e4:	00000797          	auipc	a5,0x0
 1e8:	01478793          	add	a5,a5,20 # 1f8 <test_8+0x28>
 1ec:	fe20ae23          	sw	sp,-4(ra)
 1f0:	ffc0a703          	lw	a4,-4(ra)
 1f4:	0080006f          	j	1fc <test_8+0x2c>
 1f8:	00010713          	mv	a4,sp
 1fc:	0aa013b7          	lui	t2,0xaa01
 200:	aa03839b          	addw	t2,t2,-1376 # aa00aa0 <end_signature+0xa9fca70>
 204:	38771063          	bne	a4,t2,584 <fail>

0000000000000208 <test_9>:
 208:	00900193          	li	gp,9
 20c:	00004097          	auipc	ra,0x4
 210:	e1008093          	add	ra,ra,-496 # 401c <tdat8>
 214:	a00aa137          	lui	sp,0xa00aa
 218:	00a1011b          	addw	sp,sp,10 # ffffffffa00aa00a <_end+0xffffffff900a9fc2>
 21c:	00000797          	auipc	a5,0x0
 220:	01478793          	add	a5,a5,20 # 230 <test_9+0x28>
 224:	0020a023          	sw	sp,0(ra)
 228:	0000a703          	lw	a4,0(ra)
 22c:	0080006f          	j	234 <test_9+0x2c>
 230:	00010713          	mv	a4,sp
 234:	a00aa3b7          	lui	t2,0xa00aa
 238:	00a3839b          	addw	t2,t2,10 # ffffffffa00aa00a <_end+0xffffffff900a9fc2>
 23c:	34771463          	bne	a4,t2,584 <fail>

0000000000000240 <test_10>:
 240:	00a00193          	li	gp,10
 244:	00004097          	auipc	ra,0x4
 248:	ddc08093          	add	ra,ra,-548 # 4020 <tdat9>
 24c:	12345137          	lui	sp,0x12345
 250:	6781011b          	addw	sp,sp,1656 # 12345678 <_end+0x2345630>
 254:	fe008213          	add	tp,ra,-32
 258:	02222023          	sw	sp,32(tp) # 20 <_start+0x20>
 25c:	0000a283          	lw	t0,0(ra)
 260:	123453b7          	lui	t2,0x12345
 264:	6783839b          	addw	t2,t2,1656 # 12345678 <_end+0x2345630>
 268:	30729e63          	bne	t0,t2,584 <fail>

000000000000026c <test_11>:
 26c:	00b00193          	li	gp,11
 270:	00004097          	auipc	ra,0x4
 274:	db008093          	add	ra,ra,-592 # 4020 <tdat9>
 278:	58213137          	lui	sp,0x58213
 27c:	0981011b          	addw	sp,sp,152 # 58213098 <_end+0x48213050>
 280:	ffd08093          	add	ra,ra,-3
 284:	0020a3a3          	sw	sp,7(ra)
 288:	00004217          	auipc	tp,0x4
 28c:	d9c20213          	add	tp,tp,-612 # 4024 <tdat10>
 290:	00022283          	lw	t0,0(tp) # 0 <_start>
 294:	582133b7          	lui	t2,0x58213
 298:	0983839b          	addw	t2,t2,152 # 58213098 <_end+0x48213050>
 29c:	2e729463          	bne	t0,t2,584 <fail>

00000000000002a0 <test_12>:
 2a0:	00c00193          	li	gp,12
 2a4:	00000213          	li	tp,0
 2a8:	aabbd0b7          	lui	ra,0xaabbd
 2ac:	cdd0809b          	addw	ra,ra,-803 # ffffffffaabbccdd <_end+0xffffffff9abbcc95>
 2b0:	00004117          	auipc	sp,0x4
 2b4:	d5010113          	add	sp,sp,-688 # 4000 <begin_signature>
 2b8:	00112023          	sw	ra,0(sp)
 2bc:	00012703          	lw	a4,0(sp)
 2c0:	aabbd3b7          	lui	t2,0xaabbd
 2c4:	cdd3839b          	addw	t2,t2,-803 # ffffffffaabbccdd <_end+0xffffffff9abbcc95>
 2c8:	2a771e63          	bne	a4,t2,584 <fail>
 2cc:	00120213          	add	tp,tp,1 # 1 <_start+0x1>
 2d0:	00200293          	li	t0,2
 2d4:	fc521ae3          	bne	tp,t0,2a8 <test_12+0x8>

00000000000002d8 <test_13>:
 2d8:	00d00193          	li	gp,13
 2dc:	00000213          	li	tp,0
 2e0:	daabc0b7          	lui	ra,0xdaabc
 2e4:	ccd0809b          	addw	ra,ra,-819 # ffffffffdaabbccd <_end+0xffffffffcaabbc85>
 2e8:	00004117          	auipc	sp,0x4
 2ec:	d1810113          	add	sp,sp,-744 # 4000 <begin_signature>
 2f0:	00000013          	nop
 2f4:	00112223          	sw	ra,4(sp)
 2f8:	00412703          	lw	a4,4(sp)
 2fc:	daabc3b7          	lui	t2,0xdaabc
 300:	ccd3839b          	addw	t2,t2,-819 # ffffffffdaabbccd <_end+0xffffffffcaabbc85>
 304:	28771063          	bne	a4,t2,584 <fail>
 308:	00120213          	add	tp,tp,1 # 1 <_start+0x1>
 30c:	00200293          	li	t0,2
 310:	fc5218e3          	bne	tp,t0,2e0 <test_13+0x8>

0000000000000314 <test_14>:
 314:	00e00193          	li	gp,14
 318:	00000213          	li	tp,0
 31c:	ddaac0b7          	lui	ra,0xddaac
 320:	bcc0809b          	addw	ra,ra,-1076 # ffffffffddaabbcc <_end+0xffffffffcdaabb84>
 324:	00004117          	auipc	sp,0x4
 328:	cdc10113          	add	sp,sp,-804 # 4000 <begin_signature>
 32c:	00000013          	nop
 330:	00000013          	nop
 334:	00112423          	sw	ra,8(sp)
 338:	00812703          	lw	a4,8(sp)
 33c:	ddaac3b7          	lui	t2,0xddaac
 340:	bcc3839b          	addw	t2,t2,-1076 # ffffffffddaabbcc <_end+0xffffffffcdaabb84>
 344:	24771063          	bne	a4,t2,584 <fail>
 348:	00120213          	add	tp,tp,1 # 1 <_start+0x1>
 34c:	00200293          	li	t0,2
 350:	fc5216e3          	bne	tp,t0,31c <test_14+0x8>

0000000000000354 <test_15>:
 354:	00f00193          	li	gp,15
 358:	00000213          	li	tp,0
 35c:	cddab0b7          	lui	ra,0xcddab
 360:	bbc0809b          	addw	ra,ra,-1092 # ffffffffcddaabbc <_end+0xffffffffbddaab74>
 364:	00000013          	nop
 368:	00004117          	auipc	sp,0x4
 36c:	c9810113          	add	sp,sp,-872 # 4000 <begin_signature>
 370:	00112623          	sw	ra,12(sp)
 374:	00c12703          	lw	a4,12(sp)
 378:	cddab3b7          	lui	t2,0xcddab
 37c:	bbc3839b          	addw	t2,t2,-1092 # ffffffffcddaabbc <_end+0xffffffffbddaab74>
 380:	20771263          	bne	a4,t2,584 <fail>
 384:	00120213          	add	tp,tp,1 # 1 <_start+0x1>
 388:	00200293          	li	t0,2
 38c:	fc5218e3          	bne	tp,t0,35c <test_15+0x8>

0000000000000390 <test_16>:
 390:	01000193          	li	gp,16
 394:	00000213          	li	tp,0
 398:	ccddb0b7          	lui	ra,0xccddb
 39c:	abb0809b          	addw	ra,ra,-1349 # ffffffffccddaabb <_end+0xffffffffbcddaa73>
 3a0:	00000013          	nop
 3a4:	00004117          	auipc	sp,0x4
 3a8:	c5c10113          	add	sp,sp,-932 # 4000 <begin_signature>
 3ac:	00000013          	nop
 3b0:	00112823          	sw	ra,16(sp)
 3b4:	01012703          	lw	a4,16(sp)
 3b8:	ccddb3b7          	lui	t2,0xccddb
 3bc:	abb3839b          	addw	t2,t2,-1349 # ffffffffccddaabb <_end+0xffffffffbcddaa73>
 3c0:	1c771263          	bne	a4,t2,584 <fail>
 3c4:	00120213          	add	tp,tp,1 # 1 <_start+0x1>
 3c8:	00200293          	li	t0,2
 3cc:	fc5216e3          	bne	tp,t0,398 <test_16+0x8>

00000000000003d0 <test_17>:
 3d0:	01100193          	li	gp,17
 3d4:	00000213          	li	tp,0
 3d8:	bccde0b7          	lui	ra,0xbccde
 3dc:	aab0809b          	addw	ra,ra,-1365 # ffffffffbccddaab <_end+0xffffffffaccdda63>
 3e0:	00000013          	nop
 3e4:	00000013          	nop
 3e8:	00004117          	auipc	sp,0x4
 3ec:	c1810113          	add	sp,sp,-1000 # 4000 <begin_signature>
 3f0:	00112a23          	sw	ra,20(sp)
 3f4:	01412703          	lw	a4,20(sp)
 3f8:	bccde3b7          	lui	t2,0xbccde
 3fc:	aab3839b          	addw	t2,t2,-1365 # ffffffffbccddaab <_end+0xffffffffaccdda63>
 400:	18771263          	bne	a4,t2,584 <fail>
 404:	00120213          	add	tp,tp,1 # 1 <_start+0x1>
 408:	00200293          	li	t0,2
 40c:	fc5216e3          	bne	tp,t0,3d8 <test_17+0x8>

0000000000000410 <test_18>:
 410:	01200193          	li	gp,18
 414:	00000213          	li	tp,0
 418:	00004117          	auipc	sp,0x4
 41c:	be810113          	add	sp,sp,-1048 # 4000 <begin_signature>
 420:	001120b7          	lui	ra,0x112
 424:	2330809b          	addw	ra,ra,563 # 112233 <end_signature+0x10e203>
 428:	00112023          	sw	ra,0(sp)
 42c:	00012703          	lw	a4,0(sp)
 430:	001123b7          	lui	t2,0x112
 434:	2333839b          	addw	t2,t2,563 # 112233 <end_signature+0x10e203>
 438:	14771663          	bne	a4,t2,584 <fail>
 43c:	00120213          	add	tp,tp,1 # 1 <_start+0x1>
 440:	00200293          	li	t0,2
 444:	fc521ae3          	bne	tp,t0,418 <test_18+0x8>

0000000000000448 <test_19>:
 448:	01300193          	li	gp,19
 44c:	00000213          	li	tp,0
 450:	00004117          	auipc	sp,0x4
 454:	bb010113          	add	sp,sp,-1104 # 4000 <begin_signature>
 458:	300110b7          	lui	ra,0x30011
 45c:	2230809b          	addw	ra,ra,547 # 30011223 <_end+0x200111db>
 460:	00000013          	nop
 464:	00112223          	sw	ra,4(sp)
 468:	00412703          	lw	a4,4(sp)
 46c:	300113b7          	lui	t2,0x30011
 470:	2233839b          	addw	t2,t2,547 # 30011223 <_end+0x200111db>
 474:	10771863          	bne	a4,t2,584 <fail>
 478:	00120213          	add	tp,tp,1 # 1 <_start+0x1>
 47c:	00200293          	li	t0,2
 480:	fc5218e3          	bne	tp,t0,450 <test_19+0x8>

0000000000000484 <test_20>:
 484:	01400193          	li	gp,20
 488:	00000213          	li	tp,0
 48c:	00004117          	auipc	sp,0x4
 490:	b7410113          	add	sp,sp,-1164 # 4000 <begin_signature>
 494:	330010b7          	lui	ra,0x33001
 498:	1220809b          	addw	ra,ra,290 # 33001122 <_end+0x230010da>
 49c:	00000013          	nop
 4a0:	00000013          	nop
 4a4:	00112423          	sw	ra,8(sp)
 4a8:	00812703          	lw	a4,8(sp)
 4ac:	330013b7          	lui	t2,0x33001
 4b0:	1223839b          	addw	t2,t2,290 # 33001122 <_end+0x230010da>
 4b4:	0c771863          	bne	a4,t2,584 <fail>
 4b8:	00120213          	add	tp,tp,1 # 1 <_start+0x1>
 4bc:	00200293          	li	t0,2
 4c0:	fc5216e3          	bne	tp,t0,48c <test_20+0x8>

00000000000004c4 <test_21>:
 4c4:	01500193          	li	gp,21
 4c8:	00000213          	li	tp,0
 4cc:	00004117          	auipc	sp,0x4
 4d0:	b3410113          	add	sp,sp,-1228 # 4000 <begin_signature>
 4d4:	00000013          	nop
 4d8:	233000b7          	lui	ra,0x23300
 4dc:	1120809b          	addw	ra,ra,274 # 23300112 <_end+0x133000ca>
 4e0:	00112623          	sw	ra,12(sp)
 4e4:	00c12703          	lw	a4,12(sp)
 4e8:	233003b7          	lui	t2,0x23300
 4ec:	1123839b          	addw	t2,t2,274 # 23300112 <_end+0x133000ca>
 4f0:	08771a63          	bne	a4,t2,584 <fail>
 4f4:	00120213          	add	tp,tp,1 # 1 <_start+0x1>
 4f8:	00200293          	li	t0,2
 4fc:	fc5218e3          	bne	tp,t0,4cc <test_21+0x8>

0000000000000500 <test_22>:
 500:	01600193          	li	gp,22
 504:	00000213          	li	tp,0
 508:	00004117          	auipc	sp,0x4
 50c:	af810113          	add	sp,sp,-1288 # 4000 <begin_signature>
 510:	00000013          	nop
 514:	223300b7          	lui	ra,0x22330
 518:	0110809b          	addw	ra,ra,17 # 22330011 <_end+0x1232ffc9>
 51c:	00000013          	nop
 520:	00112823          	sw	ra,16(sp)
 524:	01012703          	lw	a4,16(sp)
 528:	223303b7          	lui	t2,0x22330
 52c:	0113839b          	addw	t2,t2,17 # 22330011 <_end+0x1232ffc9>
 530:	04771a63          	bne	a4,t2,584 <fail>
 534:	00120213          	add	tp,tp,1 # 1 <_start+0x1>
 538:	00200293          	li	t0,2
 53c:	fc5216e3          	bne	tp,t0,508 <test_22+0x8>

0000000000000540 <test_23>:
 540:	01700193          	li	gp,23
 544:	00000213          	li	tp,0
 548:	00004117          	auipc	sp,0x4
 54c:	ab810113          	add	sp,sp,-1352 # 4000 <begin_signature>
 550:	00000013          	nop
 554:	00000013          	nop
 558:	122330b7          	lui	ra,0x12233
 55c:	0010809b          	addw	ra,ra,1 # 12233001 <_end+0x2232fb9>
 560:	00112a23          	sw	ra,20(sp)
 564:	01412703          	lw	a4,20(sp)
 568:	122333b7          	lui	t2,0x12233
 56c:	0013839b          	addw	t2,t2,1 # 12233001 <_end+0x2232fb9>
 570:	00771a63          	bne	a4,t2,584 <fail>
 574:	00120213          	add	tp,tp,1 # 1 <_start+0x1>
 578:	00200293          	li	t0,2
 57c:	fc5216e3          	bne	tp,t0,548 <test_23+0x8>
 580:	02301263          	bne	zero,gp,5a4 <pass>

0000000000000584 <fail>:
 584:	0ff0000f          	fence
 588:	00018063          	beqz	gp,588 <fail+0x4>
 58c:	00119193          	sll	gp,gp,0x1
 590:	0011e193          	or	gp,gp,1
 594:	10000297          	auipc	t0,0x10000
 598:	a6c28293          	add	t0,t0,-1428 # 10000000 <tohost>
 59c:	0032a023          	sw	gp,0(t0)
 5a0:	0000006f          	j	5a0 <fail+0x1c>

00000000000005a4 <pass>:
 5a4:	0ff0000f          	fence
 5a8:	00100193          	li	gp,1
 5ac:	10000297          	auipc	t0,0x10000
 5b0:	a5428293          	add	t0,t0,-1452 # 10000000 <tohost>
 5b4:	0032a023          	sw	gp,0(t0)
 5b8:	0000006f          	j	5b8 <pass+0x14>
 5bc:	c0001073          	unimp
 5c0:	0000                	.2byte	0x0
 5c2:	0000                	.2byte	0x0
