
bne.out:     file format elf64-littleriscv


Disassembly of section .text.init:

0000000000000000 <_start>:
   0:	00000093          	li	ra,0
   4:	00000113          	li	sp,0
   8:	00000193          	li	gp,0
   c:	00000213          	li	tp,0
  10:	00000293          	li	t0,0
  14:	00000313          	li	t1,0
  18:	00000393          	li	t2,0
  1c:	00000413          	li	s0,0
  20:	00000493          	li	s1,0
  24:	00000513          	li	a0,0
  28:	00000593          	li	a1,0
  2c:	00000613          	li	a2,0
  30:	00000693          	li	a3,0
  34:	00000713          	li	a4,0
  38:	00000793          	li	a5,0
  3c:	00000813          	li	a6,0
  40:	00000893          	li	a7,0
  44:	00000913          	li	s2,0
  48:	00000993          	li	s3,0
  4c:	00000a13          	li	s4,0
  50:	00000a93          	li	s5,0
  54:	00000b13          	li	s6,0
  58:	00000b93          	li	s7,0
  5c:	00000c13          	li	s8,0
  60:	00000c93          	li	s9,0
  64:	00000d13          	li	s10,0
  68:	00000d93          	li	s11,0
  6c:	00000e13          	li	t3,0
  70:	00000e93          	li	t4,0
  74:	00000f13          	li	t5,0
  78:	00000f93          	li	t6,0
  7c:	00000193          	li	gp,0

0000000000000080 <test_2>:
  80:	00200193          	li	gp,2
  84:	00000093          	li	ra,0
  88:	00100113          	li	sp,1
  8c:	00209663          	bne	ra,sp,98 <test_2+0x18>
  90:	2a301a63          	bne	zero,gp,344 <fail>
  94:	00301663          	bne	zero,gp,a0 <test_3>
  98:	fe209ee3          	bne	ra,sp,94 <test_2+0x14>
  9c:	2a301463          	bne	zero,gp,344 <fail>

00000000000000a0 <test_3>:
  a0:	00300193          	li	gp,3
  a4:	00100093          	li	ra,1
  a8:	00000113          	li	sp,0
  ac:	00209663          	bne	ra,sp,b8 <test_3+0x18>
  b0:	28301a63          	bne	zero,gp,344 <fail>
  b4:	00301663          	bne	zero,gp,c0 <test_4>
  b8:	fe209ee3          	bne	ra,sp,b4 <test_3+0x14>
  bc:	28301463          	bne	zero,gp,344 <fail>

00000000000000c0 <test_4>:
  c0:	00400193          	li	gp,4
  c4:	fff00093          	li	ra,-1
  c8:	00100113          	li	sp,1
  cc:	00209663          	bne	ra,sp,d8 <test_4+0x18>
  d0:	26301a63          	bne	zero,gp,344 <fail>
  d4:	00301663          	bne	zero,gp,e0 <test_5>
  d8:	fe209ee3          	bne	ra,sp,d4 <test_4+0x14>
  dc:	26301463          	bne	zero,gp,344 <fail>

00000000000000e0 <test_5>:
  e0:	00500193          	li	gp,5
  e4:	00100093          	li	ra,1
  e8:	fff00113          	li	sp,-1
  ec:	00209663          	bne	ra,sp,f8 <test_5+0x18>
  f0:	24301a63          	bne	zero,gp,344 <fail>
  f4:	00301663          	bne	zero,gp,100 <test_6>
  f8:	fe209ee3          	bne	ra,sp,f4 <test_5+0x14>
  fc:	24301463          	bne	zero,gp,344 <fail>

0000000000000100 <test_6>:
 100:	00600193          	li	gp,6
 104:	00000093          	li	ra,0
 108:	00000113          	li	sp,0
 10c:	00209463          	bne	ra,sp,114 <test_6+0x14>
 110:	00301463          	bne	zero,gp,118 <test_6+0x18>
 114:	22301863          	bne	zero,gp,344 <fail>
 118:	fe209ee3          	bne	ra,sp,114 <test_6+0x14>

000000000000011c <test_7>:
 11c:	00700193          	li	gp,7
 120:	00100093          	li	ra,1
 124:	00100113          	li	sp,1
 128:	00209463          	bne	ra,sp,130 <test_7+0x14>
 12c:	00301463          	bne	zero,gp,134 <test_7+0x18>
 130:	20301a63          	bne	zero,gp,344 <fail>
 134:	fe209ee3          	bne	ra,sp,130 <test_7+0x14>

0000000000000138 <test_8>:
 138:	00800193          	li	gp,8
 13c:	fff00093          	li	ra,-1
 140:	fff00113          	li	sp,-1
 144:	00209463          	bne	ra,sp,14c <test_8+0x14>
 148:	00301463          	bne	zero,gp,150 <test_8+0x18>
 14c:	1e301c63          	bne	zero,gp,344 <fail>
 150:	fe209ee3          	bne	ra,sp,14c <test_8+0x14>

0000000000000154 <test_9>:
 154:	00900193          	li	gp,9
 158:	00000213          	li	tp,0
 15c:	00000093          	li	ra,0
 160:	00000113          	li	sp,0
 164:	1e209063          	bne	ra,sp,344 <fail>
 168:	00120213          	add	tp,tp,1 # 1 <_start+0x1>
 16c:	00200293          	li	t0,2
 170:	fe5216e3          	bne	tp,t0,15c <test_9+0x8>

0000000000000174 <test_10>:
 174:	00a00193          	li	gp,10
 178:	00000213          	li	tp,0
 17c:	00000093          	li	ra,0
 180:	00000113          	li	sp,0
 184:	00000013          	nop
 188:	1a209e63          	bne	ra,sp,344 <fail>
 18c:	00120213          	add	tp,tp,1 # 1 <_start+0x1>
 190:	00200293          	li	t0,2
 194:	fe5214e3          	bne	tp,t0,17c <test_10+0x8>

0000000000000198 <test_11>:
 198:	00b00193          	li	gp,11
 19c:	00000213          	li	tp,0
 1a0:	00000093          	li	ra,0
 1a4:	00000113          	li	sp,0
 1a8:	00000013          	nop
 1ac:	00000013          	nop
 1b0:	18209a63          	bne	ra,sp,344 <fail>
 1b4:	00120213          	add	tp,tp,1 # 1 <_start+0x1>
 1b8:	00200293          	li	t0,2
 1bc:	fe5212e3          	bne	tp,t0,1a0 <test_11+0x8>

00000000000001c0 <test_12>:
 1c0:	00c00193          	li	gp,12
 1c4:	00000213          	li	tp,0
 1c8:	00000093          	li	ra,0
 1cc:	00000013          	nop
 1d0:	00000113          	li	sp,0
 1d4:	16209863          	bne	ra,sp,344 <fail>
 1d8:	00120213          	add	tp,tp,1 # 1 <_start+0x1>
 1dc:	00200293          	li	t0,2
 1e0:	fe5214e3          	bne	tp,t0,1c8 <test_12+0x8>

00000000000001e4 <test_13>:
 1e4:	00d00193          	li	gp,13
 1e8:	00000213          	li	tp,0
 1ec:	00000093          	li	ra,0
 1f0:	00000013          	nop
 1f4:	00000113          	li	sp,0
 1f8:	00000013          	nop
 1fc:	14209463          	bne	ra,sp,344 <fail>
 200:	00120213          	add	tp,tp,1 # 1 <_start+0x1>
 204:	00200293          	li	t0,2
 208:	fe5212e3          	bne	tp,t0,1ec <test_13+0x8>

000000000000020c <test_14>:
 20c:	00e00193          	li	gp,14
 210:	00000213          	li	tp,0
 214:	00000093          	li	ra,0
 218:	00000013          	nop
 21c:	00000013          	nop
 220:	00000113          	li	sp,0
 224:	12209063          	bne	ra,sp,344 <fail>
 228:	00120213          	add	tp,tp,1 # 1 <_start+0x1>
 22c:	00200293          	li	t0,2
 230:	fe5212e3          	bne	tp,t0,214 <test_14+0x8>

0000000000000234 <test_15>:
 234:	00f00193          	li	gp,15
 238:	00000213          	li	tp,0
 23c:	00000093          	li	ra,0
 240:	00000113          	li	sp,0
 244:	10209063          	bne	ra,sp,344 <fail>
 248:	00120213          	add	tp,tp,1 # 1 <_start+0x1>
 24c:	00200293          	li	t0,2
 250:	fe5216e3          	bne	tp,t0,23c <test_15+0x8>

0000000000000254 <test_16>:
 254:	01000193          	li	gp,16
 258:	00000213          	li	tp,0
 25c:	00000093          	li	ra,0
 260:	00000113          	li	sp,0
 264:	00000013          	nop
 268:	0c209e63          	bne	ra,sp,344 <fail>
 26c:	00120213          	add	tp,tp,1 # 1 <_start+0x1>
 270:	00200293          	li	t0,2
 274:	fe5214e3          	bne	tp,t0,25c <test_16+0x8>

0000000000000278 <test_17>:
 278:	01100193          	li	gp,17
 27c:	00000213          	li	tp,0
 280:	00000093          	li	ra,0
 284:	00000113          	li	sp,0
 288:	00000013          	nop
 28c:	00000013          	nop
 290:	0a209a63          	bne	ra,sp,344 <fail>
 294:	00120213          	add	tp,tp,1 # 1 <_start+0x1>
 298:	00200293          	li	t0,2
 29c:	fe5212e3          	bne	tp,t0,280 <test_17+0x8>

00000000000002a0 <test_18>:
 2a0:	01200193          	li	gp,18
 2a4:	00000213          	li	tp,0
 2a8:	00000093          	li	ra,0
 2ac:	00000013          	nop
 2b0:	00000113          	li	sp,0
 2b4:	08209863          	bne	ra,sp,344 <fail>
 2b8:	00120213          	add	tp,tp,1 # 1 <_start+0x1>
 2bc:	00200293          	li	t0,2
 2c0:	fe5214e3          	bne	tp,t0,2a8 <test_18+0x8>

00000000000002c4 <test_19>:
 2c4:	01300193          	li	gp,19
 2c8:	00000213          	li	tp,0
 2cc:	00000093          	li	ra,0
 2d0:	00000013          	nop
 2d4:	00000113          	li	sp,0
 2d8:	00000013          	nop
 2dc:	06209463          	bne	ra,sp,344 <fail>
 2e0:	00120213          	add	tp,tp,1 # 1 <_start+0x1>
 2e4:	00200293          	li	t0,2
 2e8:	fe5212e3          	bne	tp,t0,2cc <test_19+0x8>

00000000000002ec <test_20>:
 2ec:	01400193          	li	gp,20
 2f0:	00000213          	li	tp,0
 2f4:	00000093          	li	ra,0
 2f8:	00000013          	nop
 2fc:	00000013          	nop
 300:	00000113          	li	sp,0
 304:	04209063          	bne	ra,sp,344 <fail>
 308:	00120213          	add	tp,tp,1 # 1 <_start+0x1>
 30c:	00200293          	li	t0,2
 310:	fe5212e3          	bne	tp,t0,2f4 <test_20+0x8>

0000000000000314 <test_21>:
 314:	01500193          	li	gp,21
 318:	00100093          	li	ra,1
 31c:	00009a63          	bnez	ra,330 <test_21+0x1c>
 320:	00108093          	add	ra,ra,1
 324:	00108093          	add	ra,ra,1
 328:	00108093          	add	ra,ra,1
 32c:	00108093          	add	ra,ra,1
 330:	00108093          	add	ra,ra,1
 334:	00108093          	add	ra,ra,1
 338:	00300393          	li	t2,3
 33c:	00709463          	bne	ra,t2,344 <fail>
 340:	02301063          	bne	zero,gp,360 <pass>

0000000000000344 <fail>:
 344:	0ff0000f          	fence
 348:	00018063          	beqz	gp,348 <fail+0x4>
 34c:	00119193          	sll	gp,gp,0x1
 350:	0011e193          	or	gp,gp,1
 354:	000012b7          	lui	t0,0x1
 358:	0032a023          	sw	gp,0(t0) # 1000 <tohost>
 35c:	0000006f          	j	35c <fail+0x18>

0000000000000360 <pass>:
 360:	0ff0000f          	fence
 364:	00100193          	li	gp,1
 368:	000012b7          	lui	t0,0x1
 36c:	0032a023          	sw	gp,0(t0) # 1000 <tohost>
 370:	0000006f          	j	370 <pass+0x10>
 374:	c0001073          	unimp
 378:	0000                	.2byte	0x0
 37a:	0000                	.2byte	0x0
 37c:	0000                	.2byte	0x0
 37e:	0000                	.2byte	0x0
 380:	0000                	.2byte	0x0
 382:	0000                	.2byte	0x0
