
helloworld_asm.out:     file format elf64-littleriscv


Disassembly of section .text.init:

0000000000000000 <_start>:
   0:	00000093          	li	ra,0
   4:	00000113          	li	sp,0
   8:	00000193          	li	gp,0
   c:	00000213          	li	tp,0
  10:	00000293          	li	t0,0
  14:	00000313          	li	t1,0
  18:	00000393          	li	t2,0
  1c:	00000413          	li	s0,0
  20:	00000493          	li	s1,0
  24:	00000513          	li	a0,0
  28:	00000593          	li	a1,0
  2c:	00000613          	li	a2,0
  30:	00000693          	li	a3,0
  34:	00000713          	li	a4,0
  38:	00000793          	li	a5,0
  3c:	00000813          	li	a6,0
  40:	00000893          	li	a7,0
  44:	00000913          	li	s2,0
  48:	00000993          	li	s3,0
  4c:	00000a13          	li	s4,0
  50:	00000a93          	li	s5,0
  54:	00000b13          	li	s6,0
  58:	00000b93          	li	s7,0
  5c:	00000c13          	li	s8,0
  60:	00000c93          	li	s9,0
  64:	00000d13          	li	s10,0
  68:	00000d93          	li	s11,0
  6c:	00000e13          	li	t3,0
  70:	00000e93          	li	t4,0
  74:	00000f13          	li	t5,0
  78:	00000f93          	li	t6,0
  7c:	00000193          	li	gp,0
  80:	00001437          	lui	s0,0x1
  84:	04800493          	li	s1,72
  88:	00940023          	sb	s1,0(s0) # 1000 <tohost>
  8c:	06500493          	li	s1,101
  90:	00940023          	sb	s1,0(s0)
  94:	06c00493          	li	s1,108
  98:	00940023          	sb	s1,0(s0)
  9c:	06c00493          	li	s1,108
  a0:	00940023          	sb	s1,0(s0)
  a4:	06f00493          	li	s1,111
  a8:	00940023          	sb	s1,0(s0)
  ac:	02c00493          	li	s1,44
  b0:	00940023          	sb	s1,0(s0)
  b4:	02000493          	li	s1,32
  b8:	00940023          	sb	s1,0(s0)
  bc:	05700493          	li	s1,87
  c0:	00940023          	sb	s1,0(s0)
  c4:	06f00493          	li	s1,111
  c8:	00940023          	sb	s1,0(s0)
  cc:	07200493          	li	s1,114
  d0:	00940023          	sb	s1,0(s0)
  d4:	06c00493          	li	s1,108
  d8:	00940023          	sb	s1,0(s0)
  dc:	06400493          	li	s1,100
  e0:	00940023          	sb	s1,0(s0)
  e4:	02100493          	li	s1,33
  e8:	00940023          	sb	s1,0(s0)
  ec:	00000493          	li	s1,0
  f0:	00940023          	sb	s1,0(s0)
  f4:	00008067          	ret
  f8:	02301063          	bne	zero,gp,118 <pass>

00000000000000fc <fail>:
  fc:	0ff0000f          	fence
 100:	00018063          	beqz	gp,100 <fail+0x4>
 104:	00119193          	sll	gp,gp,0x1
 108:	0011e193          	or	gp,gp,1
 10c:	000012b7          	lui	t0,0x1
 110:	0032a023          	sw	gp,0(t0) # 1000 <tohost>
 114:	0000006f          	j	114 <fail+0x18>

0000000000000118 <pass>:
 118:	0ff0000f          	fence
 11c:	00100193          	li	gp,1
 120:	000012b7          	lui	t0,0x1
 124:	0032a023          	sw	gp,0(t0) # 1000 <tohost>
 128:	0000006f          	j	128 <pass+0x10>
 12c:	c0001073          	unimp
 130:	0000                	.2byte	0x0
 132:	0000                	.2byte	0x0
 134:	0000                	.2byte	0x0
 136:	0000                	.2byte	0x0
 138:	0000                	.2byte	0x0
 13a:	0000                	.2byte	0x0
 13c:	0000                	.2byte	0x0
 13e:	0000                	.2byte	0x0
 140:	0000                	.2byte	0x0
 142:	0000                	.2byte	0x0
