
ori.out:     file format elf64-littleriscv


Disassembly of section .text.init:

0000000000000000 <_start>:
   0:	00000093          	li	ra,0
   4:	00000113          	li	sp,0
   8:	00000193          	li	gp,0
   c:	00000213          	li	tp,0
  10:	00000293          	li	t0,0
  14:	00000313          	li	t1,0
  18:	00000393          	li	t2,0
  1c:	00000413          	li	s0,0
  20:	00000493          	li	s1,0
  24:	00000513          	li	a0,0
  28:	00000593          	li	a1,0
  2c:	00000613          	li	a2,0
  30:	00000693          	li	a3,0
  34:	00000713          	li	a4,0
  38:	00000793          	li	a5,0
  3c:	00000813          	li	a6,0
  40:	00000893          	li	a7,0
  44:	00000913          	li	s2,0
  48:	00000993          	li	s3,0
  4c:	00000a13          	li	s4,0
  50:	00000a93          	li	s5,0
  54:	00000b13          	li	s6,0
  58:	00000b93          	li	s7,0
  5c:	00000c13          	li	s8,0
  60:	00000c93          	li	s9,0
  64:	00000d13          	li	s10,0
  68:	00000d93          	li	s11,0
  6c:	00000e13          	li	t3,0
  70:	00000e93          	li	t4,0
  74:	00000f13          	li	t5,0
  78:	00000f93          	li	t6,0
  7c:	00000193          	li	gp,0

0000000000000080 <test_2>:
  80:	00200193          	li	gp,2
  84:	ff0100b7          	lui	ra,0xff010
  88:	f000809b          	addw	ra,ra,-256 # ffffffffff00ff00 <_end+0xffffffffff00bf00>
  8c:	f0f0e713          	or	a4,ra,-241
  90:	f0f00393          	li	t2,-241
  94:	1c771c63          	bne	a4,t2,26c <fail>

0000000000000098 <test_3>:
  98:	00300193          	li	gp,3
  9c:	0ff010b7          	lui	ra,0xff01
  a0:	ff00809b          	addw	ra,ra,-16 # ff00ff0 <_end+0xfefcff0>
  a4:	0f00e713          	or	a4,ra,240
  a8:	0ff013b7          	lui	t2,0xff01
  ac:	ff03839b          	addw	t2,t2,-16 # ff00ff0 <_end+0xfefcff0>
  b0:	1a771e63          	bne	a4,t2,26c <fail>

00000000000000b4 <test_4>:
  b4:	00400193          	li	gp,4
  b8:	00ff00b7          	lui	ra,0xff0
  bc:	0ff0809b          	addw	ra,ra,255 # ff00ff <_end+0xfec0ff>
  c0:	70f0e713          	or	a4,ra,1807
  c4:	00ff03b7          	lui	t2,0xff0
  c8:	7ff3839b          	addw	t2,t2,2047 # ff07ff <_end+0xfec7ff>
  cc:	1a771063          	bne	a4,t2,26c <fail>

00000000000000d0 <test_5>:
  d0:	00500193          	li	gp,5
  d4:	f00ff0b7          	lui	ra,0xf00ff
  d8:	00f0809b          	addw	ra,ra,15 # fffffffff00ff00f <_end+0xfffffffff00fb00f>
  dc:	0f00e713          	or	a4,ra,240
  e0:	f00ff3b7          	lui	t2,0xf00ff
  e4:	0ff3839b          	addw	t2,t2,255 # fffffffff00ff0ff <_end+0xfffffffff00fb0ff>
  e8:	18771263          	bne	a4,t2,26c <fail>

00000000000000ec <test_6>:
  ec:	00600193          	li	gp,6
  f0:	000100b7          	lui	ra,0x10
  f4:	f010809b          	addw	ra,ra,-255 # ff01 <_end+0xbf01>
  f8:	01009093          	sll	ra,ra,0x10
  fc:	f0008093          	add	ra,ra,-256
 100:	0f00e093          	or	ra,ra,240
 104:	000103b7          	lui	t2,0x10
 108:	f013839b          	addw	t2,t2,-255 # ff01 <_end+0xbf01>
 10c:	01039393          	sll	t2,t2,0x10
 110:	ff038393          	add	t2,t2,-16
 114:	14709c63          	bne	ra,t2,26c <fail>

0000000000000118 <test_7>:
 118:	00700193          	li	gp,7
 11c:	00000213          	li	tp,0
 120:	0ff010b7          	lui	ra,0xff01
 124:	ff00809b          	addw	ra,ra,-16 # ff00ff0 <_end+0xfefcff0>
 128:	0f00e713          	or	a4,ra,240
 12c:	00070313          	mv	t1,a4
 130:	00120213          	add	tp,tp,1 # 1 <_start+0x1>
 134:	00200293          	li	t0,2
 138:	fe5214e3          	bne	tp,t0,120 <test_7+0x8>
 13c:	0ff013b7          	lui	t2,0xff01
 140:	ff03839b          	addw	t2,t2,-16 # ff00ff0 <_end+0xfefcff0>
 144:	12731463          	bne	t1,t2,26c <fail>

0000000000000148 <test_8>:
 148:	00800193          	li	gp,8
 14c:	00000213          	li	tp,0
 150:	00ff00b7          	lui	ra,0xff0
 154:	0ff0809b          	addw	ra,ra,255 # ff00ff <_end+0xfec0ff>
 158:	70f0e713          	or	a4,ra,1807
 15c:	00000013          	nop
 160:	00070313          	mv	t1,a4
 164:	00120213          	add	tp,tp,1 # 1 <_start+0x1>
 168:	00200293          	li	t0,2
 16c:	fe5212e3          	bne	tp,t0,150 <test_8+0x8>
 170:	00ff03b7          	lui	t2,0xff0
 174:	7ff3839b          	addw	t2,t2,2047 # ff07ff <_end+0xfec7ff>
 178:	0e731a63          	bne	t1,t2,26c <fail>

000000000000017c <test_9>:
 17c:	00900193          	li	gp,9
 180:	00000213          	li	tp,0
 184:	f00ff0b7          	lui	ra,0xf00ff
 188:	00f0809b          	addw	ra,ra,15 # fffffffff00ff00f <_end+0xfffffffff00fb00f>
 18c:	0f00e713          	or	a4,ra,240
 190:	00000013          	nop
 194:	00000013          	nop
 198:	00070313          	mv	t1,a4
 19c:	00120213          	add	tp,tp,1 # 1 <_start+0x1>
 1a0:	00200293          	li	t0,2
 1a4:	fe5210e3          	bne	tp,t0,184 <test_9+0x8>
 1a8:	f00ff3b7          	lui	t2,0xf00ff
 1ac:	0ff3839b          	addw	t2,t2,255 # fffffffff00ff0ff <_end+0xfffffffff00fb0ff>
 1b0:	0a731e63          	bne	t1,t2,26c <fail>

00000000000001b4 <test_10>:
 1b4:	00a00193          	li	gp,10
 1b8:	00000213          	li	tp,0
 1bc:	0ff010b7          	lui	ra,0xff01
 1c0:	ff00809b          	addw	ra,ra,-16 # ff00ff0 <_end+0xfefcff0>
 1c4:	0f00e713          	or	a4,ra,240
 1c8:	00120213          	add	tp,tp,1 # 1 <_start+0x1>
 1cc:	00200293          	li	t0,2
 1d0:	fe5216e3          	bne	tp,t0,1bc <test_10+0x8>
 1d4:	0ff013b7          	lui	t2,0xff01
 1d8:	ff03839b          	addw	t2,t2,-16 # ff00ff0 <_end+0xfefcff0>
 1dc:	08771863          	bne	a4,t2,26c <fail>

00000000000001e0 <test_11>:
 1e0:	00b00193          	li	gp,11
 1e4:	00000213          	li	tp,0
 1e8:	00ff00b7          	lui	ra,0xff0
 1ec:	0ff0809b          	addw	ra,ra,255 # ff00ff <_end+0xfec0ff>
 1f0:	00000013          	nop
 1f4:	f0f0e713          	or	a4,ra,-241
 1f8:	00120213          	add	tp,tp,1 # 1 <_start+0x1>
 1fc:	00200293          	li	t0,2
 200:	fe5214e3          	bne	tp,t0,1e8 <test_11+0x8>
 204:	fff00393          	li	t2,-1
 208:	06771263          	bne	a4,t2,26c <fail>

000000000000020c <test_12>:
 20c:	00c00193          	li	gp,12
 210:	00000213          	li	tp,0
 214:	f00ff0b7          	lui	ra,0xf00ff
 218:	00f0809b          	addw	ra,ra,15 # fffffffff00ff00f <_end+0xfffffffff00fb00f>
 21c:	00000013          	nop
 220:	00000013          	nop
 224:	0f00e713          	or	a4,ra,240
 228:	00120213          	add	tp,tp,1 # 1 <_start+0x1>
 22c:	00200293          	li	t0,2
 230:	fe5212e3          	bne	tp,t0,214 <test_12+0x8>
 234:	f00ff3b7          	lui	t2,0xf00ff
 238:	0ff3839b          	addw	t2,t2,255 # fffffffff00ff0ff <_end+0xfffffffff00fb0ff>
 23c:	02771863          	bne	a4,t2,26c <fail>

0000000000000240 <test_13>:
 240:	00d00193          	li	gp,13
 244:	0f006093          	or	ra,zero,240
 248:	0f000393          	li	t2,240
 24c:	02709063          	bne	ra,t2,26c <fail>

0000000000000250 <test_14>:
 250:	00e00193          	li	gp,14
 254:	00ff00b7          	lui	ra,0xff0
 258:	0ff0809b          	addw	ra,ra,255 # ff00ff <_end+0xfec0ff>
 25c:	70f0e013          	or	zero,ra,1807
 260:	00000393          	li	t2,0
 264:	00701463          	bne	zero,t2,26c <fail>
 268:	02301063          	bne	zero,gp,288 <pass>

000000000000026c <fail>:
 26c:	0ff0000f          	fence
 270:	00018063          	beqz	gp,270 <fail+0x4>
 274:	00119193          	sll	gp,gp,0x1
 278:	0011e193          	or	gp,gp,1
 27c:	000012b7          	lui	t0,0x1
 280:	0032a023          	sw	gp,0(t0) # 1000 <tohost>
 284:	0000006f          	j	284 <fail+0x18>

0000000000000288 <pass>:
 288:	0ff0000f          	fence
 28c:	00100193          	li	gp,1
 290:	000012b7          	lui	t0,0x1
 294:	0032a023          	sw	gp,0(t0) # 1000 <tohost>
 298:	0000006f          	j	298 <pass+0x10>
 29c:	c0001073          	unimp
 2a0:	0000                	.2byte	0x0
 2a2:	0000                	.2byte	0x0
 2a4:	0000                	.2byte	0x0
 2a6:	0000                	.2byte	0x0
 2a8:	0000                	.2byte	0x0
 2aa:	0000                	.2byte	0x0
 2ac:	0000                	.2byte	0x0
 2ae:	0000                	.2byte	0x0
 2b0:	0000                	.2byte	0x0
 2b2:	0000                	.2byte	0x0
 2b4:	0000                	.2byte	0x0
 2b6:	0000                	.2byte	0x0
 2b8:	0000                	.2byte	0x0
 2ba:	0000                	.2byte	0x0
 2bc:	0000                	.2byte	0x0
 2be:	0000                	.2byte	0x0
 2c0:	0000                	.2byte	0x0
 2c2:	0000                	.2byte	0x0
