
ecall.riscv:     file format elf64-littleriscv


Disassembly of section .text.init:

0000000000000000 <_start>:
   0:	00000093          	li	ra,0
   4:	00000113          	li	sp,0
   8:	00000193          	li	gp,0
   c:	00000213          	li	tp,0
  10:	00000293          	li	t0,0
  14:	00000313          	li	t1,0
  18:	00000393          	li	t2,0
  1c:	00000413          	li	s0,0
  20:	00000493          	li	s1,0
  24:	00000513          	li	a0,0
  28:	00000593          	li	a1,0
  2c:	00000613          	li	a2,0
  30:	00000693          	li	a3,0
  34:	00000713          	li	a4,0
  38:	00000793          	li	a5,0
  3c:	00000813          	li	a6,0
  40:	00000893          	li	a7,0
  44:	00000913          	li	s2,0
  48:	00000993          	li	s3,0
  4c:	00000a13          	li	s4,0
  50:	00000a93          	li	s5,0
  54:	00000b13          	li	s6,0
  58:	00000b93          	li	s7,0
  5c:	00000c13          	li	s8,0
  60:	00000c93          	li	s9,0
  64:	00000d13          	li	s10,0
  68:	00000d93          	li	s11,0
  6c:	00000e13          	li	t3,0
  70:	00000e93          	li	t4,0
  74:	00000f13          	li	t5,0
  78:	00000f93          	li	t6,0
  7c:	00000297          	auipc	t0,0x0
  80:	03828293          	add	t0,t0,56 # b4 <trap_entry>
  84:	30529073          	csrw	mtvec,t0
  88:	00005197          	auipc	gp,0x5
  8c:	99018193          	add	gp,gp,-1648 # 4a18 <__global_pointer$>
  90:	10000217          	auipc	tp,0x10000
  94:	ff720213          	add	tp,tp,-9 # 10000087 <_end+0x3f>
  98:	fc027213          	and	tp,tp,-64
  9c:	f1402573          	csrr	a0,mhartid
  a0:	00100593          	li	a1,1
  a4:	00b57063          	bgeu	a0,a1,a4 <_start+0xa4>
  a8:	00006137          	lui	sp,0x6
  ac:	ff01011b          	addw	sp,sp,-16 # 5ff0 <__global_pointer$+0x15d8>
  b0:	6d00006f          	j	780 <_init>

00000000000000b4 <trap_entry>:
  b4:	ef010113          	add	sp,sp,-272
  b8:	00113423          	sd	ra,8(sp)
  bc:	00213823          	sd	sp,16(sp)
  c0:	00313c23          	sd	gp,24(sp)
  c4:	02413023          	sd	tp,32(sp)
  c8:	02513423          	sd	t0,40(sp)
  cc:	02613823          	sd	t1,48(sp)
  d0:	02713c23          	sd	t2,56(sp)
  d4:	04813023          	sd	s0,64(sp)
  d8:	04913423          	sd	s1,72(sp)
  dc:	04a13823          	sd	a0,80(sp)
  e0:	04b13c23          	sd	a1,88(sp)
  e4:	06c13023          	sd	a2,96(sp)
  e8:	06d13423          	sd	a3,104(sp)
  ec:	06e13823          	sd	a4,112(sp)
  f0:	06f13c23          	sd	a5,120(sp)
  f4:	09013023          	sd	a6,128(sp)
  f8:	09113423          	sd	a7,136(sp)
  fc:	09213823          	sd	s2,144(sp)
 100:	09313c23          	sd	s3,152(sp)
 104:	0b413023          	sd	s4,160(sp)
 108:	0b513423          	sd	s5,168(sp)
 10c:	0b613823          	sd	s6,176(sp)
 110:	0b713c23          	sd	s7,184(sp)
 114:	0d813023          	sd	s8,192(sp)
 118:	0d913423          	sd	s9,200(sp)
 11c:	0da13823          	sd	s10,208(sp)
 120:	0db13c23          	sd	s11,216(sp)
 124:	0fc13023          	sd	t3,224(sp)
 128:	0fd13423          	sd	t4,232(sp)
 12c:	0fe13823          	sd	t5,240(sp)
 130:	0ff13c23          	sd	t6,248(sp)
 134:	34202573          	csrr	a0,mcause
 138:	341025f3          	csrr	a1,mepc
 13c:	00010613          	mv	a2,sp
 140:	098000ef          	jal	1d8 <handle_trap>
 144:	34151073          	csrw	mepc,a0
 148:	000022b7          	lui	t0,0x2
 14c:	8002829b          	addw	t0,t0,-2048 # 1800 <main+0xe98>
 150:	3002a073          	csrs	mstatus,t0
 154:	00813083          	ld	ra,8(sp)
 158:	01013103          	ld	sp,16(sp)
 15c:	01813183          	ld	gp,24(sp)
 160:	02013203          	ld	tp,32(sp)
 164:	02813283          	ld	t0,40(sp)
 168:	03013303          	ld	t1,48(sp)
 16c:	03813383          	ld	t2,56(sp)
 170:	04013403          	ld	s0,64(sp)
 174:	04813483          	ld	s1,72(sp)
 178:	05013503          	ld	a0,80(sp)
 17c:	05813583          	ld	a1,88(sp)
 180:	06013603          	ld	a2,96(sp)
 184:	06813683          	ld	a3,104(sp)
 188:	07013703          	ld	a4,112(sp)
 18c:	07813783          	ld	a5,120(sp)
 190:	08013803          	ld	a6,128(sp)
 194:	08813883          	ld	a7,136(sp)
 198:	09013903          	ld	s2,144(sp)
 19c:	09813983          	ld	s3,152(sp)
 1a0:	0a013a03          	ld	s4,160(sp)
 1a4:	0a813a83          	ld	s5,168(sp)
 1a8:	0b013b03          	ld	s6,176(sp)
 1ac:	0b813b83          	ld	s7,184(sp)
 1b0:	0c013c03          	ld	s8,192(sp)
 1b4:	0c813c83          	ld	s9,200(sp)
 1b8:	0d013d03          	ld	s10,208(sp)
 1bc:	0d813d83          	ld	s11,216(sp)
 1c0:	0e013e03          	ld	t3,224(sp)
 1c4:	0e813e83          	ld	t4,232(sp)
 1c8:	0f013f03          	ld	t5,240(sp)
 1cc:	0f813f83          	ld	t6,248(sp)
 1d0:	11010113          	add	sp,sp,272
 1d4:	30200073          	mret

Disassembly of section .text:

00000000000001d8 <handle_trap>:
 1d8:	fc010113          	add	sp,sp,-64
 1dc:	02813823          	sd	s0,48(sp)
 1e0:	00058413          	mv	s0,a1
 1e4:	02913423          	sd	s1,40(sp)
 1e8:	00810593          	add	a1,sp,8
 1ec:	00050493          	mv	s1,a0
 1f0:	00040513          	mv	a0,s0
 1f4:	02113c23          	sd	ra,56(sp)
 1f8:	0a8000ef          	jal	2a0 <int64ToHex>
 1fc:	00b00793          	li	a5,11
 200:	02f49e63          	bne	s1,a5,23c <handle_trap+0x64>
 204:	00004517          	auipc	a0,0x4
 208:	e2c50513          	add	a0,a0,-468 # 4030 <main+0x36c8>
 20c:	0d8000ef          	jal	2e4 <printstr>
 210:	00810513          	add	a0,sp,8
 214:	0d0000ef          	jal	2e4 <printstr>
 218:	00004517          	auipc	a0,0x4
 21c:	e8050513          	add	a0,a0,-384 # 4098 <main+0x3730>
 220:	0c4000ef          	jal	2e4 <printstr>
 224:	03813083          	ld	ra,56(sp)
 228:	00440513          	add	a0,s0,4
 22c:	03013403          	ld	s0,48(sp)
 230:	02813483          	ld	s1,40(sp)
 234:	04010113          	add	sp,sp,64
 238:	00008067          	ret
 23c:	00004517          	auipc	a0,0x4
 240:	e1c50513          	add	a0,a0,-484 # 4058 <main+0x36f0>
 244:	0a0000ef          	jal	2e4 <printstr>
 248:	fff00513          	li	a0,-1
 24c:	1d0000ef          	jal	41c <exit>

0000000000000250 <clearCounters>:
 250:	b0201073          	csrw	minstret,zero
 254:	b0001073          	csrw	mcycle,zero
 258:	00008067          	ret

000000000000025c <int32ToHex>:
 25c:	03000793          	li	a5,48
 260:	00f58023          	sb	a5,0(a1)
 264:	07800793          	li	a5,120
 268:	00f580a3          	sb	a5,1(a1)
 26c:	00158813          	add	a6,a1,1
 270:	00958793          	add	a5,a1,9
 274:	00900613          	li	a2,9
 278:	00f57713          	and	a4,a0,15
 27c:	03770693          	add	a3,a4,55
 280:	00e66463          	bltu	a2,a4,288 <int32ToHex+0x2c>
 284:	03070693          	add	a3,a4,48
 288:	00d78023          	sb	a3,0(a5)
 28c:	fff78793          	add	a5,a5,-1
 290:	40455513          	sra	a0,a0,0x4
 294:	fef812e3          	bne	a6,a5,278 <int32ToHex+0x1c>
 298:	00058523          	sb	zero,10(a1)
 29c:	00008067          	ret

00000000000002a0 <int64ToHex>:
 2a0:	03000793          	li	a5,48
 2a4:	00f58023          	sb	a5,0(a1)
 2a8:	07800793          	li	a5,120
 2ac:	00f580a3          	sb	a5,1(a1)
 2b0:	00158813          	add	a6,a1,1
 2b4:	01158793          	add	a5,a1,17
 2b8:	00900613          	li	a2,9
 2bc:	00f57713          	and	a4,a0,15
 2c0:	03770693          	add	a3,a4,55
 2c4:	00e66463          	bltu	a2,a4,2cc <int64ToHex+0x2c>
 2c8:	03070693          	add	a3,a4,48
 2cc:	00d78023          	sb	a3,0(a5)
 2d0:	fff78793          	add	a5,a5,-1
 2d4:	40455513          	sra	a0,a0,0x4
 2d8:	fef812e3          	bne	a6,a5,2bc <int64ToHex+0x1c>
 2dc:	00058923          	sb	zero,18(a1)
 2e0:	00008067          	ret

00000000000002e4 <printstr>:
 2e4:	00054783          	lbu	a5,0(a0)
 2e8:	00078c63          	beqz	a5,300 <printstr+0x1c>
 2ec:	10000737          	lui	a4,0x10000
 2f0:	00f70023          	sb	a5,0(a4) # 10000000 <tohost>
 2f4:	00154783          	lbu	a5,1(a0)
 2f8:	00150513          	add	a0,a0,1
 2fc:	fe079ae3          	bnez	a5,2f0 <printstr+0xc>
 300:	00008067          	ret

0000000000000304 <printCounters>:
 304:	fe010113          	add	sp,sp,-32
 308:	c0202673          	rdinstret	a2
 30c:	c00025f3          	rdcycle	a1
 310:	00004717          	auipc	a4,0x4
 314:	d9070713          	add	a4,a4,-624 # 40a0 <main+0x3738>
 318:	06300793          	li	a5,99
 31c:	100006b7          	lui	a3,0x10000
 320:	00f68023          	sb	a5,0(a3) # 10000000 <tohost>
 324:	00174783          	lbu	a5,1(a4)
 328:	00170713          	add	a4,a4,1
 32c:	fe079ae3          	bnez	a5,320 <printCounters+0x1c>
 330:	ffff8737          	lui	a4,0xffff8
 334:	83074713          	xor	a4,a4,-2000
 338:	01910793          	add	a5,sp,25
 33c:	00e11423          	sh	a4,8(sp)
 340:	00910813          	add	a6,sp,9
 344:	00078713          	mv	a4,a5
 348:	00900893          	li	a7,9
 34c:	00f5f693          	and	a3,a1,15
 350:	03768513          	add	a0,a3,55
 354:	00d8e463          	bltu	a7,a3,35c <printCounters+0x58>
 358:	03068513          	add	a0,a3,48
 35c:	00a70023          	sb	a0,0(a4) # ffffffffffff8000 <_end+0xffffffffefff7fb8>
 360:	fff70713          	add	a4,a4,-1
 364:	4045d593          	sra	a1,a1,0x4
 368:	fee812e3          	bne	a6,a4,34c <printCounters+0x48>
 36c:	00814703          	lbu	a4,8(sp)
 370:	00010d23          	sb	zero,26(sp)
 374:	00810693          	add	a3,sp,8
 378:	100005b7          	lui	a1,0x10000
 37c:	00070a63          	beqz	a4,390 <printCounters+0x8c>
 380:	00e58023          	sb	a4,0(a1) # 10000000 <tohost>
 384:	0016c703          	lbu	a4,1(a3)
 388:	00168693          	add	a3,a3,1
 38c:	fe071ae3          	bnez	a4,380 <printCounters+0x7c>
 390:	00004697          	auipc	a3,0x4
 394:	d1868693          	add	a3,a3,-744 # 40a8 <main+0x3740>
 398:	00a00713          	li	a4,10
 39c:	100005b7          	lui	a1,0x10000
 3a0:	00e58023          	sb	a4,0(a1) # 10000000 <tohost>
 3a4:	0016c703          	lbu	a4,1(a3)
 3a8:	00168693          	add	a3,a3,1
 3ac:	fe071ae3          	bnez	a4,3a0 <printCounters+0x9c>
 3b0:	ffff8737          	lui	a4,0xffff8
 3b4:	83074713          	xor	a4,a4,-2000
 3b8:	00060693          	mv	a3,a2
 3bc:	00e11423          	sh	a4,8(sp)
 3c0:	00900593          	li	a1,9
 3c4:	00f6f713          	and	a4,a3,15
 3c8:	03770613          	add	a2,a4,55 # ffffffffffff8037 <_end+0xffffffffefff7fef>
 3cc:	00e5e463          	bltu	a1,a4,3d4 <printCounters+0xd0>
 3d0:	03070613          	add	a2,a4,48
 3d4:	00c78023          	sb	a2,0(a5)
 3d8:	fff78793          	add	a5,a5,-1
 3dc:	4046d693          	sra	a3,a3,0x4
 3e0:	fef812e3          	bne	a6,a5,3c4 <printCounters+0xc0>
 3e4:	00814783          	lbu	a5,8(sp)
 3e8:	00010d23          	sb	zero,26(sp)
 3ec:	00810713          	add	a4,sp,8
 3f0:	100006b7          	lui	a3,0x10000
 3f4:	00078a63          	beqz	a5,408 <printCounters+0x104>
 3f8:	00f68023          	sb	a5,0(a3) # 10000000 <tohost>
 3fc:	00174783          	lbu	a5,1(a4)
 400:	00170713          	add	a4,a4,1
 404:	fe079ae3          	bnez	a5,3f8 <printCounters+0xf4>
 408:	100007b7          	lui	a5,0x10000
 40c:	00a00713          	li	a4,10
 410:	00e78023          	sb	a4,0(a5) # 10000000 <tohost>
 414:	02010113          	add	sp,sp,32
 418:	00008067          	ret

000000000000041c <exit>:
 41c:	fe010113          	add	sp,sp,-32
 420:	00813823          	sd	s0,16(sp)
 424:	00113c23          	sd	ra,24(sp)
 428:	00050413          	mv	s0,a0
 42c:	00004717          	auipc	a4,0x4
 430:	c8c70713          	add	a4,a4,-884 # 40b8 <main+0x3750>
 434:	04500793          	li	a5,69
 438:	100006b7          	lui	a3,0x10000
 43c:	00f68023          	sb	a5,0(a3) # 10000000 <tohost>
 440:	00174783          	lbu	a5,1(a4)
 444:	00170713          	add	a4,a4,1
 448:	fe079ae3          	bnez	a5,43c <exit+0x20>
 44c:	00010593          	mv	a1,sp
 450:	00040513          	mv	a0,s0
 454:	e09ff0ef          	jal	25c <int32ToHex>
 458:	00014703          	lbu	a4,0(sp)
 45c:	00070e63          	beqz	a4,478 <exit+0x5c>
 460:	00010793          	mv	a5,sp
 464:	100006b7          	lui	a3,0x10000
 468:	00e68023          	sb	a4,0(a3) # 10000000 <tohost>
 46c:	0017c703          	lbu	a4,1(a5)
 470:	00178793          	add	a5,a5,1
 474:	fe071ae3          	bnez	a4,468 <exit+0x4c>
 478:	00040513          	mv	a0,s0
 47c:	100007b7          	lui	a5,0x10000
 480:	00078023          	sb	zero,0(a5) # 10000000 <tohost>
 484:	0000006f          	j	484 <exit+0x68>
 488:	ffff87b7          	lui	a5,0xffff8
 48c:	fd010113          	add	sp,sp,-48
 490:	8307c793          	xor	a5,a5,-2000
 494:	00f11423          	sh	a5,8(sp)
 498:	02113423          	sd	ra,40(sp)
 49c:	01910793          	add	a5,sp,25
 4a0:	00910813          	add	a6,sp,9
 4a4:	00900613          	li	a2,9
 4a8:	00f5f713          	and	a4,a1,15
 4ac:	03770693          	add	a3,a4,55
 4b0:	00e66463          	bltu	a2,a4,4b8 <exit+0x9c>
 4b4:	03070693          	add	a3,a4,48
 4b8:	00d78023          	sb	a3,0(a5) # ffffffffffff8000 <_end+0xffffffffefff7fb8>
 4bc:	fff78793          	add	a5,a5,-1
 4c0:	4045d593          	sra	a1,a1,0x4
 4c4:	ff0792e3          	bne	a5,a6,4a8 <exit+0x8c>
 4c8:	00010d23          	sb	zero,26(sp)
 4cc:	00b00793          	li	a5,11
 4d0:	02a7e063          	bltu	a5,a0,4f0 <exit+0xd4>
 4d4:	00004717          	auipc	a4,0x4
 4d8:	b2c70713          	add	a4,a4,-1236 # 4000 <main+0x3698>
 4dc:	00251513          	sll	a0,a0,0x2
 4e0:	00e50533          	add	a0,a0,a4
 4e4:	00052783          	lw	a5,0(a0)
 4e8:	00e787b3          	add	a5,a5,a4
 4ec:	00078067          	jr	a5
 4f0:	00004717          	auipc	a4,0x4
 4f4:	cf070713          	add	a4,a4,-784 # 41e0 <main+0x3878>
 4f8:	05500793          	li	a5,85
 4fc:	100006b7          	lui	a3,0x10000
 500:	00f68023          	sb	a5,0(a3) # 10000000 <tohost>
 504:	00174783          	lbu	a5,1(a4)
 508:	00170713          	add	a4,a4,1
 50c:	fe079ae3          	bnez	a5,500 <exit+0xe4>
 510:	00814783          	lbu	a5,8(sp)
 514:	00810713          	add	a4,sp,8
 518:	100006b7          	lui	a3,0x10000
 51c:	00078a63          	beqz	a5,530 <exit+0x114>
 520:	00f68023          	sb	a5,0(a3) # 10000000 <tohost>
 524:	00174783          	lbu	a5,1(a4)
 528:	00170713          	add	a4,a4,1
 52c:	fe079ae3          	bnez	a5,520 <exit+0x104>
 530:	00004717          	auipc	a4,0x4
 534:	cd070713          	add	a4,a4,-816 # 4200 <main+0x3898>
 538:	00a00793          	li	a5,10
 53c:	100006b7          	lui	a3,0x10000
 540:	00f68023          	sb	a5,0(a3) # 10000000 <tohost>
 544:	00174783          	lbu	a5,1(a4)
 548:	00170713          	add	a4,a4,1
 54c:	fe079ae3          	bnez	a5,540 <exit+0x124>
 550:	fff00513          	li	a0,-1
 554:	ec9ff0ef          	jal	41c <exit>
 558:	00004717          	auipc	a4,0x4
 55c:	b7070713          	add	a4,a4,-1168 # 40c8 <main+0x3760>
 560:	04900793          	li	a5,73
 564:	100006b7          	lui	a3,0x10000
 568:	00f68023          	sb	a5,0(a3) # 10000000 <tohost>
 56c:	00174783          	lbu	a5,1(a4)
 570:	00170713          	add	a4,a4,1
 574:	fe079ae3          	bnez	a5,568 <exit+0x14c>
 578:	00814783          	lbu	a5,8(sp)
 57c:	00810713          	add	a4,sp,8
 580:	100006b7          	lui	a3,0x10000
 584:	fc0786e3          	beqz	a5,550 <exit+0x134>
 588:	00f68023          	sb	a5,0(a3) # 10000000 <tohost>
 58c:	00174783          	lbu	a5,1(a4)
 590:	00170713          	add	a4,a4,1
 594:	fe079ae3          	bnez	a5,588 <exit+0x16c>
 598:	fb9ff06f          	j	550 <exit+0x134>
 59c:	00004717          	auipc	a4,0x4
 5a0:	b5470713          	add	a4,a4,-1196 # 40f0 <main+0x3788>
 5a4:	04900793          	li	a5,73
 5a8:	100006b7          	lui	a3,0x10000
 5ac:	00f68023          	sb	a5,0(a3) # 10000000 <tohost>
 5b0:	00174783          	lbu	a5,1(a4)
 5b4:	00170713          	add	a4,a4,1
 5b8:	fe079ae3          	bnez	a5,5ac <exit+0x190>
 5bc:	00814783          	lbu	a5,8(sp)
 5c0:	f80788e3          	beqz	a5,550 <exit+0x134>
 5c4:	00810713          	add	a4,sp,8
 5c8:	100006b7          	lui	a3,0x10000
 5cc:	00f68023          	sb	a5,0(a3) # 10000000 <tohost>
 5d0:	00174783          	lbu	a5,1(a4)
 5d4:	00170713          	add	a4,a4,1
 5d8:	fe079ae3          	bnez	a5,5cc <exit+0x1b0>
 5dc:	f75ff06f          	j	550 <exit+0x134>
 5e0:	00004717          	auipc	a4,0x4
 5e4:	b3870713          	add	a4,a4,-1224 # 4118 <main+0x37b0>
 5e8:	04900793          	li	a5,73
 5ec:	100006b7          	lui	a3,0x10000
 5f0:	00f68023          	sb	a5,0(a3) # 10000000 <tohost>
 5f4:	00174783          	lbu	a5,1(a4)
 5f8:	00170713          	add	a4,a4,1
 5fc:	fe079ae3          	bnez	a5,5f0 <exit+0x1d4>
 600:	00814783          	lbu	a5,8(sp)
 604:	f40786e3          	beqz	a5,550 <exit+0x134>
 608:	00810713          	add	a4,sp,8
 60c:	100006b7          	lui	a3,0x10000
 610:	00f68023          	sb	a5,0(a3) # 10000000 <tohost>
 614:	00174783          	lbu	a5,1(a4)
 618:	00170713          	add	a4,a4,1
 61c:	fe079ae3          	bnez	a5,610 <exit+0x1f4>
 620:	f31ff06f          	j	550 <exit+0x134>
 624:	00004717          	auipc	a4,0x4
 628:	b1470713          	add	a4,a4,-1260 # 4138 <main+0x37d0>
 62c:	04c00793          	li	a5,76
 630:	100006b7          	lui	a3,0x10000
 634:	00f68023          	sb	a5,0(a3) # 10000000 <tohost>
 638:	00174783          	lbu	a5,1(a4)
 63c:	00170713          	add	a4,a4,1
 640:	fe079ae3          	bnez	a5,634 <exit+0x218>
 644:	00814783          	lbu	a5,8(sp)
 648:	f00784e3          	beqz	a5,550 <exit+0x134>
 64c:	00810713          	add	a4,sp,8
 650:	100006b7          	lui	a3,0x10000
 654:	00f68023          	sb	a5,0(a3) # 10000000 <tohost>
 658:	00174783          	lbu	a5,1(a4)
 65c:	00170713          	add	a4,a4,1
 660:	fe079ae3          	bnez	a5,654 <exit+0x238>
 664:	eedff06f          	j	550 <exit+0x134>
 668:	00004717          	auipc	a4,0x4
 66c:	af070713          	add	a4,a4,-1296 # 4158 <main+0x37f0>
 670:	04c00793          	li	a5,76
 674:	100006b7          	lui	a3,0x10000
 678:	00f68023          	sb	a5,0(a3) # 10000000 <tohost>
 67c:	00174783          	lbu	a5,1(a4)
 680:	00170713          	add	a4,a4,1
 684:	fe079ae3          	bnez	a5,678 <exit+0x25c>
 688:	00814783          	lbu	a5,8(sp)
 68c:	ec0782e3          	beqz	a5,550 <exit+0x134>
 690:	00810713          	add	a4,sp,8
 694:	100006b7          	lui	a3,0x10000
 698:	00f68023          	sb	a5,0(a3) # 10000000 <tohost>
 69c:	00174783          	lbu	a5,1(a4)
 6a0:	00170713          	add	a4,a4,1
 6a4:	fe079ae3          	bnez	a5,698 <exit+0x27c>
 6a8:	ea9ff06f          	j	550 <exit+0x134>
 6ac:	00004717          	auipc	a4,0x4
 6b0:	acc70713          	add	a4,a4,-1332 # 4178 <main+0x3810>
 6b4:	05300793          	li	a5,83
 6b8:	100006b7          	lui	a3,0x10000
 6bc:	00f68023          	sb	a5,0(a3) # 10000000 <tohost>
 6c0:	00174783          	lbu	a5,1(a4)
 6c4:	00170713          	add	a4,a4,1
 6c8:	fe079ae3          	bnez	a5,6bc <exit+0x2a0>
 6cc:	00814783          	lbu	a5,8(sp)
 6d0:	e80780e3          	beqz	a5,550 <exit+0x134>
 6d4:	00810713          	add	a4,sp,8
 6d8:	100006b7          	lui	a3,0x10000
 6dc:	00f68023          	sb	a5,0(a3) # 10000000 <tohost>
 6e0:	00174783          	lbu	a5,1(a4)
 6e4:	00170713          	add	a4,a4,1
 6e8:	fe079ae3          	bnez	a5,6dc <exit+0x2c0>
 6ec:	e65ff06f          	j	550 <exit+0x134>
 6f0:	00004717          	auipc	a4,0x4
 6f4:	ab070713          	add	a4,a4,-1360 # 41a0 <main+0x3838>
 6f8:	05300793          	li	a5,83
 6fc:	100006b7          	lui	a3,0x10000
 700:	00f68023          	sb	a5,0(a3) # 10000000 <tohost>
 704:	00174783          	lbu	a5,1(a4)
 708:	00170713          	add	a4,a4,1
 70c:	fe079ae3          	bnez	a5,700 <exit+0x2e4>
 710:	00814783          	lbu	a5,8(sp)
 714:	e2078ee3          	beqz	a5,550 <exit+0x134>
 718:	00810713          	add	a4,sp,8
 71c:	100006b7          	lui	a3,0x10000
 720:	00f68023          	sb	a5,0(a3) # 10000000 <tohost>
 724:	00174783          	lbu	a5,1(a4)
 728:	00170713          	add	a4,a4,1
 72c:	fe079ae3          	bnez	a5,720 <exit+0x304>
 730:	e21ff06f          	j	550 <exit+0x134>
 734:	00004717          	auipc	a4,0x4
 738:	a8c70713          	add	a4,a4,-1396 # 41c0 <main+0x3858>
 73c:	04500793          	li	a5,69
 740:	100006b7          	lui	a3,0x10000
 744:	00f68023          	sb	a5,0(a3) # 10000000 <tohost>
 748:	00174783          	lbu	a5,1(a4)
 74c:	00170713          	add	a4,a4,1
 750:	fe079ae3          	bnez	a5,744 <exit+0x328>
 754:	00814783          	lbu	a5,8(sp)
 758:	de078ce3          	beqz	a5,550 <exit+0x134>
 75c:	00810713          	add	a4,sp,8
 760:	100006b7          	lui	a3,0x10000
 764:	00f68023          	sb	a5,0(a3) # 10000000 <tohost>
 768:	00174783          	lbu	a5,1(a4)
 76c:	00170713          	add	a4,a4,1
 770:	fe079ae3          	bnez	a5,764 <exit+0x348>
 774:	dddff06f          	j	550 <exit+0x134>

0000000000000778 <thread_entry>:
 778:	00051063          	bnez	a0,778 <thread_entry>
 77c:	00008067          	ret

0000000000000780 <_init>:
 780:	ff010113          	add	sp,sp,-16
 784:	00000593          	li	a1,0
 788:	00000513          	li	a0,0
 78c:	00113423          	sd	ra,8(sp)
 790:	1d8000ef          	jal	968 <main>
 794:	c89ff0ef          	jal	41c <exit>

0000000000000798 <memcpy>:
 798:	00b567b3          	or	a5,a0,a1
 79c:	00c7e7b3          	or	a5,a5,a2
 7a0:	0077f793          	and	a5,a5,7
 7a4:	00c50833          	add	a6,a0,a2
 7a8:	02078463          	beqz	a5,7d0 <memcpy+0x38>
 7ac:	00c58633          	add	a2,a1,a2
 7b0:	00050793          	mv	a5,a0
 7b4:	0b057663          	bgeu	a0,a6,860 <memcpy+0xc8>
 7b8:	0005c703          	lbu	a4,0(a1)
 7bc:	00158593          	add	a1,a1,1
 7c0:	00178793          	add	a5,a5,1
 7c4:	fee78fa3          	sb	a4,-1(a5)
 7c8:	fec598e3          	bne	a1,a2,7b8 <memcpy+0x20>
 7cc:	00008067          	ret
 7d0:	04050693          	add	a3,a0,64
 7d4:	0906f863          	bgeu	a3,a6,864 <memcpy+0xcc>
 7d8:	00058713          	mv	a4,a1
 7dc:	00068793          	mv	a5,a3
 7e0:	00073383          	ld	t2,0(a4)
 7e4:	00873283          	ld	t0,8(a4)
 7e8:	01073f83          	ld	t6,16(a4)
 7ec:	01873f03          	ld	t5,24(a4)
 7f0:	02073e83          	ld	t4,32(a4)
 7f4:	02873e03          	ld	t3,40(a4)
 7f8:	03073303          	ld	t1,48(a4)
 7fc:	03873883          	ld	a7,56(a4)
 800:	04078793          	add	a5,a5,64
 804:	f877b023          	sd	t2,-128(a5)
 808:	f857b423          	sd	t0,-120(a5)
 80c:	f9f7b823          	sd	t6,-112(a5)
 810:	f9e7bc23          	sd	t5,-104(a5)
 814:	fbd7b023          	sd	t4,-96(a5)
 818:	fbc7b423          	sd	t3,-88(a5)
 81c:	fa67b823          	sd	t1,-80(a5)
 820:	fb17bc23          	sd	a7,-72(a5)
 824:	04070713          	add	a4,a4,64
 828:	fb07ece3          	bltu	a5,a6,7e0 <memcpy+0x48>
 82c:	fbf60613          	add	a2,a2,-65
 830:	fc067793          	and	a5,a2,-64
 834:	04078793          	add	a5,a5,64
 838:	fc067613          	and	a2,a2,-64
 83c:	00f585b3          	add	a1,a1,a5
 840:	00c687b3          	add	a5,a3,a2
 844:	f907f4e3          	bgeu	a5,a6,7cc <memcpy+0x34>
 848:	0005b703          	ld	a4,0(a1)
 84c:	00878793          	add	a5,a5,8
 850:	00858593          	add	a1,a1,8
 854:	fee7bc23          	sd	a4,-8(a5)
 858:	ff07e8e3          	bltu	a5,a6,848 <memcpy+0xb0>
 85c:	00008067          	ret
 860:	00008067          	ret
 864:	00050793          	mv	a5,a0
 868:	fddff06f          	j	844 <memcpy+0xac>

000000000000086c <memset>:
 86c:	00c567b3          	or	a5,a0,a2
 870:	0077f793          	and	a5,a5,7
 874:	00c50633          	add	a2,a0,a2
 878:	0ff5f713          	zext.b	a4,a1
 87c:	00078e63          	beqz	a5,898 <memset+0x2c>
 880:	00050793          	mv	a5,a0
 884:	02c57c63          	bgeu	a0,a2,8bc <memset+0x50>
 888:	00178793          	add	a5,a5,1
 88c:	fee78fa3          	sb	a4,-1(a5)
 890:	fef61ce3          	bne	a2,a5,888 <memset+0x1c>
 894:	00008067          	ret
 898:	00004797          	auipc	a5,0x4
 89c:	9807b783          	ld	a5,-1664(a5) # 4218 <main+0x38b0>
 8a0:	02f70733          	mul	a4,a4,a5
 8a4:	fec578e3          	bgeu	a0,a2,894 <memset+0x28>
 8a8:	00050793          	mv	a5,a0
 8ac:	00878793          	add	a5,a5,8
 8b0:	fee7bc23          	sd	a4,-8(a5)
 8b4:	fec7ece3          	bltu	a5,a2,8ac <memset+0x40>
 8b8:	00008067          	ret
 8bc:	00008067          	ret

00000000000008c0 <strlen>:
 8c0:	00054783          	lbu	a5,0(a0)
 8c4:	00078e63          	beqz	a5,8e0 <strlen+0x20>
 8c8:	00050793          	mv	a5,a0
 8cc:	0017c703          	lbu	a4,1(a5)
 8d0:	00178793          	add	a5,a5,1
 8d4:	fe071ce3          	bnez	a4,8cc <strlen+0xc>
 8d8:	40a78533          	sub	a0,a5,a0
 8dc:	00008067          	ret
 8e0:	00000513          	li	a0,0
 8e4:	00008067          	ret

00000000000008e8 <strnlen>:
 8e8:	00b506b3          	add	a3,a0,a1
 8ec:	00050793          	mv	a5,a0
 8f0:	00059863          	bnez	a1,900 <strnlen+0x18>
 8f4:	0240006f          	j	918 <strnlen+0x30>
 8f8:	00178793          	add	a5,a5,1
 8fc:	00f68a63          	beq	a3,a5,910 <strnlen+0x28>
 900:	0007c703          	lbu	a4,0(a5)
 904:	fe071ae3          	bnez	a4,8f8 <strnlen+0x10>
 908:	40a78533          	sub	a0,a5,a0
 90c:	00008067          	ret
 910:	40a68533          	sub	a0,a3,a0
 914:	00008067          	ret
 918:	00000513          	li	a0,0
 91c:	00008067          	ret

0000000000000920 <strcmp>:
 920:	00054783          	lbu	a5,0(a0)
 924:	00158593          	add	a1,a1,1
 928:	00150513          	add	a0,a0,1
 92c:	fff5c703          	lbu	a4,-1(a1)
 930:	00078a63          	beqz	a5,944 <strcmp+0x24>
 934:	fee786e3          	beq	a5,a4,920 <strcmp>
 938:	0007851b          	sext.w	a0,a5
 93c:	40e5053b          	subw	a0,a0,a4
 940:	00008067          	ret
 944:	00000513          	li	a0,0
 948:	ff5ff06f          	j	93c <strcmp+0x1c>

000000000000094c <strcpy>:
 94c:	00050793          	mv	a5,a0
 950:	0005c703          	lbu	a4,0(a1)
 954:	00178793          	add	a5,a5,1
 958:	00158593          	add	a1,a1,1
 95c:	fee78fa3          	sb	a4,-1(a5)
 960:	fe0718e3          	bnez	a4,950 <strcpy+0x4>
 964:	00008067          	ret

Disassembly of section .text.startup:

0000000000000968 <main>:
 968:	ff010113          	add	sp,sp,-16
 96c:	00113423          	sd	ra,8(sp)
 970:	00000073          	ecall
 974:	00003517          	auipc	a0,0x3
 978:	70450513          	add	a0,a0,1796 # 4078 <main+0x3710>
 97c:	969ff0ef          	jal	2e4 <printstr>
 980:	00813083          	ld	ra,8(sp)
 984:	00000513          	li	a0,0
 988:	01010113          	add	sp,sp,16
 98c:	00008067          	ret
 990:	fff00513          	li	a0,-1
 994:	00008067          	ret

Disassembly of section .tohost:

0000000010000000 <tohost>:
	...

0000000010000040 <fromhost>:
	...
