
helloworld.riscv:     file format elf64-littleriscv


Disassembly of section .text.init:

0000000000000000 <_start>:
   0:	00000093          	li	ra,0
   4:	00000113          	li	sp,0
   8:	00000193          	li	gp,0
   c:	00000213          	li	tp,0
  10:	00000293          	li	t0,0
  14:	00000313          	li	t1,0
  18:	00000393          	li	t2,0
  1c:	00000413          	li	s0,0
  20:	00000493          	li	s1,0
  24:	00000513          	li	a0,0
  28:	00000593          	li	a1,0
  2c:	00000613          	li	a2,0
  30:	00000693          	li	a3,0
  34:	00000713          	li	a4,0
  38:	00000793          	li	a5,0
  3c:	00000813          	li	a6,0
  40:	00000893          	li	a7,0
  44:	00000913          	li	s2,0
  48:	00000993          	li	s3,0
  4c:	00000a13          	li	s4,0
  50:	00000a93          	li	s5,0
  54:	00000b13          	li	s6,0
  58:	00000b93          	li	s7,0
  5c:	00000c13          	li	s8,0
  60:	00000c93          	li	s9,0
  64:	00000d13          	li	s10,0
  68:	00000d93          	li	s11,0
  6c:	00000e13          	li	t3,0
  70:	00000e93          	li	t4,0
  74:	00000f13          	li	t5,0
  78:	00000f93          	li	t6,0
  7c:	00004197          	auipc	gp,0x4
  80:	7e018193          	add	gp,gp,2016 # 485c <__global_pointer$>
  84:	00004217          	auipc	tp,0x4
  88:	01720213          	add	tp,tp,23 # 409b <_end+0x3f>
  8c:	fc027213          	and	tp,tp,-64
  90:	00005137          	lui	sp,0x5
  94:	fff1011b          	addw	sp,sp,-1 # 4fff <__global_pointer$+0x7a3>
  98:	00000513          	li	a0,0
  9c:	00100593          	li	a1,1
  a0:	1800006f          	j	220 <_init>
  a4:	00000013          	nop
  a8:	00000013          	nop
  ac:	00000013          	nop

Disassembly of section .text:

00000000000000b0 <thread_entry>:
  b0:	00051063          	bnez	a0,b0 <thread_entry>
  b4:	00008067          	ret

00000000000000b8 <int32ToHex>:
  b8:	03000793          	li	a5,48
  bc:	00f57513          	and	a0,a0,15
  c0:	00251693          	sll	a3,a0,0x2
  c4:	00004617          	auipc	a2,0x4
  c8:	f3c60613          	add	a2,a2,-196 # 4000 <fromhost+0x2fc0>
  cc:	00f58023          	sb	a5,0(a1)
  d0:	07800793          	li	a5,120
  d4:	00f580a3          	sb	a5,1(a1)
  d8:	00158893          	add	a7,a1,1
  dc:	00958793          	add	a5,a1,9
  e0:	00f00813          	li	a6,15
  e4:	00c686b3          	add	a3,a3,a2
  e8:	08a86c63          	bltu	a6,a0,180 <int32ToHex+0xc8>
  ec:	0006a703          	lw	a4,0(a3)
  f0:	00c70733          	add	a4,a4,a2
  f4:	00070067          	jr	a4
  f8:	03100713          	li	a4,49
  fc:	00e78023          	sb	a4,0(a5)
 100:	fff78793          	add	a5,a5,-1
 104:	ff1792e3          	bne	a5,a7,e8 <int32ToHex+0x30>
 108:	00058523          	sb	zero,10(a1)
 10c:	00008067          	ret
 110:	04600713          	li	a4,70
 114:	fe9ff06f          	j	fc <int32ToHex+0x44>
 118:	04500713          	li	a4,69
 11c:	fe1ff06f          	j	fc <int32ToHex+0x44>
 120:	04400713          	li	a4,68
 124:	fd9ff06f          	j	fc <int32ToHex+0x44>
 128:	04300713          	li	a4,67
 12c:	fd1ff06f          	j	fc <int32ToHex+0x44>
 130:	04200713          	li	a4,66
 134:	fc9ff06f          	j	fc <int32ToHex+0x44>
 138:	04100713          	li	a4,65
 13c:	fc1ff06f          	j	fc <int32ToHex+0x44>
 140:	03900713          	li	a4,57
 144:	fb9ff06f          	j	fc <int32ToHex+0x44>
 148:	03800713          	li	a4,56
 14c:	fb1ff06f          	j	fc <int32ToHex+0x44>
 150:	03700713          	li	a4,55
 154:	fa9ff06f          	j	fc <int32ToHex+0x44>
 158:	03600713          	li	a4,54
 15c:	fa1ff06f          	j	fc <int32ToHex+0x44>
 160:	03500713          	li	a4,53
 164:	f99ff06f          	j	fc <int32ToHex+0x44>
 168:	03400713          	li	a4,52
 16c:	f91ff06f          	j	fc <int32ToHex+0x44>
 170:	03300713          	li	a4,51
 174:	f89ff06f          	j	fc <int32ToHex+0x44>
 178:	03200713          	li	a4,50
 17c:	f81ff06f          	j	fc <int32ToHex+0x44>
 180:	03000713          	li	a4,48
 184:	f79ff06f          	j	fc <int32ToHex+0x44>

0000000000000188 <putchar_tohost>:
 188:	000017b7          	lui	a5,0x1
 18c:	00a78023          	sb	a0,0(a5) # 1000 <tohost>
 190:	00000513          	li	a0,0
 194:	00008067          	ret

0000000000000198 <printstr>:
 198:	00054783          	lbu	a5,0(a0)
 19c:	00078e63          	beqz	a5,1b8 <printstr+0x20>
 1a0:	00001737          	lui	a4,0x1
 1a4:	00054783          	lbu	a5,0(a0)
 1a8:	00150513          	add	a0,a0,1
 1ac:	00f70023          	sb	a5,0(a4) # 1000 <tohost>
 1b0:	00054783          	lbu	a5,0(a0)
 1b4:	fe0798e3          	bnez	a5,1a4 <printstr+0xc>
 1b8:	00008067          	ret

00000000000001bc <exit>:
 1bc:	fe010113          	add	sp,sp,-32
 1c0:	00113c23          	sd	ra,24(sp)
 1c4:	00004797          	auipc	a5,0x4
 1c8:	e8c7c783          	lbu	a5,-372(a5) # 4050 <fromhost+0x3010>
 1cc:	02078263          	beqz	a5,1f0 <exit+0x34>
 1d0:	00004797          	auipc	a5,0x4
 1d4:	e8078793          	add	a5,a5,-384 # 4050 <fromhost+0x3010>
 1d8:	000016b7          	lui	a3,0x1
 1dc:	0007c703          	lbu	a4,0(a5)
 1e0:	00178793          	add	a5,a5,1
 1e4:	00e68023          	sb	a4,0(a3) # 1000 <tohost>
 1e8:	0007c703          	lbu	a4,0(a5)
 1ec:	fe0718e3          	bnez	a4,1dc <exit+0x20>
 1f0:	00010593          	mv	a1,sp
 1f4:	ec5ff0ef          	jal	b8 <int32ToHex>
 1f8:	00014783          	lbu	a5,0(sp)
 1fc:	02078063          	beqz	a5,21c <exit+0x60>
 200:	00010793          	mv	a5,sp
 204:	000016b7          	lui	a3,0x1
 208:	0007c703          	lbu	a4,0(a5)
 20c:	00178793          	add	a5,a5,1
 210:	00e68023          	sb	a4,0(a3) # 1000 <tohost>
 214:	0007c703          	lbu	a4,0(a5)
 218:	fe0718e3          	bnez	a4,208 <exit+0x4c>
 21c:	0000006f          	j	21c <exit+0x60>

0000000000000220 <_init>:
 220:	ff010113          	add	sp,sp,-16
 224:	00000593          	li	a1,0
 228:	00000513          	li	a0,0
 22c:	00113423          	sd	ra,8(sp)
 230:	1e4000ef          	jal	414 <main>
 234:	f89ff0ef          	jal	1bc <exit>

0000000000000238 <memcpy>:
 238:	00b567b3          	or	a5,a0,a1
 23c:	00c7e7b3          	or	a5,a5,a2
 240:	0077f793          	and	a5,a5,7
 244:	00c50833          	add	a6,a0,a2
 248:	02078463          	beqz	a5,270 <memcpy+0x38>
 24c:	00c58633          	add	a2,a1,a2
 250:	00050793          	mv	a5,a0
 254:	0b057663          	bgeu	a0,a6,300 <memcpy+0xc8>
 258:	0005c703          	lbu	a4,0(a1)
 25c:	00158593          	add	a1,a1,1
 260:	00178793          	add	a5,a5,1
 264:	fee78fa3          	sb	a4,-1(a5)
 268:	fec598e3          	bne	a1,a2,258 <memcpy+0x20>
 26c:	00008067          	ret
 270:	04050693          	add	a3,a0,64
 274:	0906f863          	bgeu	a3,a6,304 <memcpy+0xcc>
 278:	00058713          	mv	a4,a1
 27c:	00068793          	mv	a5,a3
 280:	00073383          	ld	t2,0(a4)
 284:	00873283          	ld	t0,8(a4)
 288:	01073f83          	ld	t6,16(a4)
 28c:	01873f03          	ld	t5,24(a4)
 290:	02073e83          	ld	t4,32(a4)
 294:	02873e03          	ld	t3,40(a4)
 298:	03073303          	ld	t1,48(a4)
 29c:	03873883          	ld	a7,56(a4)
 2a0:	04078793          	add	a5,a5,64
 2a4:	f877b023          	sd	t2,-128(a5)
 2a8:	f857b423          	sd	t0,-120(a5)
 2ac:	f9f7b823          	sd	t6,-112(a5)
 2b0:	f9e7bc23          	sd	t5,-104(a5)
 2b4:	fbd7b023          	sd	t4,-96(a5)
 2b8:	fbc7b423          	sd	t3,-88(a5)
 2bc:	fa67b823          	sd	t1,-80(a5)
 2c0:	fb17bc23          	sd	a7,-72(a5)
 2c4:	04070713          	add	a4,a4,64
 2c8:	fb07ece3          	bltu	a5,a6,280 <memcpy+0x48>
 2cc:	fbf60613          	add	a2,a2,-65
 2d0:	fc067793          	and	a5,a2,-64
 2d4:	04078793          	add	a5,a5,64
 2d8:	fc067613          	and	a2,a2,-64
 2dc:	00f585b3          	add	a1,a1,a5
 2e0:	00c687b3          	add	a5,a3,a2
 2e4:	f907f4e3          	bgeu	a5,a6,26c <memcpy+0x34>
 2e8:	0005b703          	ld	a4,0(a1)
 2ec:	00878793          	add	a5,a5,8
 2f0:	00858593          	add	a1,a1,8
 2f4:	fee7bc23          	sd	a4,-8(a5)
 2f8:	ff07e8e3          	bltu	a5,a6,2e8 <memcpy+0xb0>
 2fc:	00008067          	ret
 300:	00008067          	ret
 304:	00050793          	mv	a5,a0
 308:	fddff06f          	j	2e4 <memcpy+0xac>

000000000000030c <memset>:
 30c:	00c567b3          	or	a5,a0,a2
 310:	0077f793          	and	a5,a5,7
 314:	00c50633          	add	a2,a0,a2
 318:	0ff5f593          	zext.b	a1,a1
 31c:	00078e63          	beqz	a5,338 <memset+0x2c>
 320:	00050793          	mv	a5,a0
 324:	04c57263          	bgeu	a0,a2,368 <memset+0x5c>
 328:	00178793          	add	a5,a5,1
 32c:	feb78fa3          	sb	a1,-1(a5)
 330:	fef61ce3          	bne	a2,a5,328 <memset+0x1c>
 334:	00008067          	ret
 338:	00859713          	sll	a4,a1,0x8
 33c:	00b70733          	add	a4,a4,a1
 340:	01071793          	sll	a5,a4,0x10
 344:	00f70733          	add	a4,a4,a5
 348:	02071793          	sll	a5,a4,0x20
 34c:	00f70733          	add	a4,a4,a5
 350:	fec572e3          	bgeu	a0,a2,334 <memset+0x28>
 354:	00050793          	mv	a5,a0
 358:	00878793          	add	a5,a5,8
 35c:	fee7bc23          	sd	a4,-8(a5)
 360:	fec7ece3          	bltu	a5,a2,358 <memset+0x4c>
 364:	00008067          	ret
 368:	00008067          	ret

000000000000036c <strlen>:
 36c:	00054783          	lbu	a5,0(a0)
 370:	00078e63          	beqz	a5,38c <strlen+0x20>
 374:	00050793          	mv	a5,a0
 378:	0017c703          	lbu	a4,1(a5)
 37c:	00178793          	add	a5,a5,1
 380:	fe071ce3          	bnez	a4,378 <strlen+0xc>
 384:	40a78533          	sub	a0,a5,a0
 388:	00008067          	ret
 38c:	00000513          	li	a0,0
 390:	00008067          	ret

0000000000000394 <strnlen>:
 394:	00b506b3          	add	a3,a0,a1
 398:	00050793          	mv	a5,a0
 39c:	00059863          	bnez	a1,3ac <strnlen+0x18>
 3a0:	0240006f          	j	3c4 <strnlen+0x30>
 3a4:	00178793          	add	a5,a5,1
 3a8:	00f68a63          	beq	a3,a5,3bc <strnlen+0x28>
 3ac:	0007c703          	lbu	a4,0(a5)
 3b0:	fe071ae3          	bnez	a4,3a4 <strnlen+0x10>
 3b4:	40a78533          	sub	a0,a5,a0
 3b8:	00008067          	ret
 3bc:	40a68533          	sub	a0,a3,a0
 3c0:	00008067          	ret
 3c4:	00000513          	li	a0,0
 3c8:	00008067          	ret

00000000000003cc <strcmp>:
 3cc:	00054783          	lbu	a5,0(a0)
 3d0:	00158593          	add	a1,a1,1
 3d4:	00150513          	add	a0,a0,1
 3d8:	fff5c703          	lbu	a4,-1(a1)
 3dc:	00078a63          	beqz	a5,3f0 <strcmp+0x24>
 3e0:	fee786e3          	beq	a5,a4,3cc <strcmp>
 3e4:	0007851b          	sext.w	a0,a5
 3e8:	40e5053b          	subw	a0,a0,a4
 3ec:	00008067          	ret
 3f0:	00000513          	li	a0,0
 3f4:	ff5ff06f          	j	3e8 <strcmp+0x1c>

00000000000003f8 <strcpy>:
 3f8:	00050793          	mv	a5,a0
 3fc:	0005c703          	lbu	a4,0(a1)
 400:	00178793          	add	a5,a5,1
 404:	00158593          	add	a1,a1,1
 408:	fee78fa3          	sb	a4,-1(a5)
 40c:	fe0718e3          	bnez	a4,3fc <strcpy+0x4>
 410:	00008067          	ret

Disassembly of section .text.startup:

0000000000000414 <main>:
 414:	ff010113          	add	sp,sp,-16
 418:	00004517          	auipc	a0,0x4
 41c:	c2850513          	add	a0,a0,-984 # 4040 <fromhost+0x3000>
 420:	00113423          	sd	ra,8(sp)
 424:	d75ff0ef          	jal	198 <printstr>
 428:	00813083          	ld	ra,8(sp)
 42c:	00000513          	li	a0,0
 430:	01010113          	add	sp,sp,16
 434:	00008067          	ret
 438:	fff00513          	li	a0,-1
 43c:	00008067          	ret

Disassembly of section .tohost:

0000000000001000 <tohost>:
	...

0000000000001040 <fromhost>:
	...
