
quicksort.riscv:     file format elf64-littleriscv


Disassembly of section .text.init:

0000000000000000 <_start>:
   0:	00000093          	li	ra,0
   4:	00000113          	li	sp,0
   8:	00000193          	li	gp,0
   c:	00000213          	li	tp,0
  10:	00000293          	li	t0,0
  14:	00000313          	li	t1,0
  18:	00000393          	li	t2,0
  1c:	00000413          	li	s0,0
  20:	00000493          	li	s1,0
  24:	00000513          	li	a0,0
  28:	00000593          	li	a1,0
  2c:	00000613          	li	a2,0
  30:	00000693          	li	a3,0
  34:	00000713          	li	a4,0
  38:	00000793          	li	a5,0
  3c:	00000813          	li	a6,0
  40:	00000893          	li	a7,0
  44:	00000913          	li	s2,0
  48:	00000993          	li	s3,0
  4c:	00000a13          	li	s4,0
  50:	00000a93          	li	s5,0
  54:	00000b13          	li	s6,0
  58:	00000b93          	li	s7,0
  5c:	00000c13          	li	s8,0
  60:	00000c93          	li	s9,0
  64:	00000d13          	li	s10,0
  68:	00000d93          	li	s11,0
  6c:	00000e13          	li	t3,0
  70:	00000e93          	li	t4,0
  74:	00000f13          	li	t5,0
  78:	00000f93          	li	t6,0
  7c:	00000297          	auipc	t0,0x0
  80:	03828293          	add	t0,t0,56 # b4 <trap_entry>
  84:	30529073          	csrw	mtvec,t0
  88:	00005197          	auipc	gp,0x5
  8c:	9ad18193          	add	gp,gp,-1619 # 4a35 <__global_pointer$>
  90:	10000217          	auipc	tp,0x10000
  94:	ff720213          	add	tp,tp,-9 # 10000087 <_end+0x3f>
  98:	fc027213          	and	tp,tp,-64
  9c:	f1402573          	csrr	a0,mhartid
  a0:	00100593          	li	a1,1
  a4:	00b57063          	bgeu	a0,a1,a4 <_start+0xa4>
  a8:	00006137          	lui	sp,0x6
  ac:	ff01011b          	addw	sp,sp,-16 # 5ff0 <__global_pointer$+0x15bb>
  b0:	6040006f          	j	6b4 <_init>

00000000000000b4 <trap_entry>:
  b4:	ef010113          	add	sp,sp,-272
  b8:	00113423          	sd	ra,8(sp)
  bc:	00213823          	sd	sp,16(sp)
  c0:	00313c23          	sd	gp,24(sp)
  c4:	02413023          	sd	tp,32(sp)
  c8:	02513423          	sd	t0,40(sp)
  cc:	02613823          	sd	t1,48(sp)
  d0:	02713c23          	sd	t2,56(sp)
  d4:	04813023          	sd	s0,64(sp)
  d8:	04913423          	sd	s1,72(sp)
  dc:	04a13823          	sd	a0,80(sp)
  e0:	04b13c23          	sd	a1,88(sp)
  e4:	06c13023          	sd	a2,96(sp)
  e8:	06d13423          	sd	a3,104(sp)
  ec:	06e13823          	sd	a4,112(sp)
  f0:	06f13c23          	sd	a5,120(sp)
  f4:	09013023          	sd	a6,128(sp)
  f8:	09113423          	sd	a7,136(sp)
  fc:	09213823          	sd	s2,144(sp)
 100:	09313c23          	sd	s3,152(sp)
 104:	0b413023          	sd	s4,160(sp)
 108:	0b513423          	sd	s5,168(sp)
 10c:	0b613823          	sd	s6,176(sp)
 110:	0b713c23          	sd	s7,184(sp)
 114:	0d813023          	sd	s8,192(sp)
 118:	0d913423          	sd	s9,200(sp)
 11c:	0da13823          	sd	s10,208(sp)
 120:	0db13c23          	sd	s11,216(sp)
 124:	0fc13023          	sd	t3,224(sp)
 128:	0fd13423          	sd	t4,232(sp)
 12c:	0fe13823          	sd	t5,240(sp)
 130:	0ff13c23          	sd	t6,248(sp)
 134:	34202573          	csrr	a0,mcause
 138:	341025f3          	csrr	a1,mepc
 13c:	00010613          	mv	a2,sp
 140:	27c000ef          	jal	3bc <handle_trap>
 144:	34151073          	csrw	mepc,a0
 148:	000022b7          	lui	t0,0x2
 14c:	8002829b          	addw	t0,t0,-2048 # 1800 <main+0xf50>
 150:	3002a073          	csrs	mstatus,t0
 154:	00813083          	ld	ra,8(sp)
 158:	01013103          	ld	sp,16(sp)
 15c:	01813183          	ld	gp,24(sp)
 160:	02013203          	ld	tp,32(sp)
 164:	02813283          	ld	t0,40(sp)
 168:	03013303          	ld	t1,48(sp)
 16c:	03813383          	ld	t2,56(sp)
 170:	04013403          	ld	s0,64(sp)
 174:	04813483          	ld	s1,72(sp)
 178:	05013503          	ld	a0,80(sp)
 17c:	05813583          	ld	a1,88(sp)
 180:	06013603          	ld	a2,96(sp)
 184:	06813683          	ld	a3,104(sp)
 188:	07013703          	ld	a4,112(sp)
 18c:	07813783          	ld	a5,120(sp)
 190:	08013803          	ld	a6,128(sp)
 194:	08813883          	ld	a7,136(sp)
 198:	09013903          	ld	s2,144(sp)
 19c:	09813983          	ld	s3,152(sp)
 1a0:	0a013a03          	ld	s4,160(sp)
 1a4:	0a813a83          	ld	s5,168(sp)
 1a8:	0b013b03          	ld	s6,176(sp)
 1ac:	0b813b83          	ld	s7,184(sp)
 1b0:	0c013c03          	ld	s8,192(sp)
 1b4:	0c813c83          	ld	s9,200(sp)
 1b8:	0d013d03          	ld	s10,208(sp)
 1bc:	0d813d83          	ld	s11,216(sp)
 1c0:	0e013e03          	ld	t3,224(sp)
 1c4:	0e813e83          	ld	t4,232(sp)
 1c8:	0f013f03          	ld	t5,240(sp)
 1cc:	0f813f83          	ld	t6,248(sp)
 1d0:	11010113          	add	sp,sp,272
 1d4:	30200073          	mret

Disassembly of section .text:

00000000000001d8 <quicksort>:
 1d8:	0cc5de63          	bge	a1,a2,2b4 <quicksort+0xdc>
 1dc:	fd010113          	add	sp,sp,-48
 1e0:	02813023          	sd	s0,32(sp)
 1e4:	00913c23          	sd	s1,24(sp)
 1e8:	01313423          	sd	s3,8(sp)
 1ec:	02113423          	sd	ra,40(sp)
 1f0:	01213823          	sd	s2,16(sp)
 1f4:	00060993          	mv	s3,a2
 1f8:	00050493          	mv	s1,a0
 1fc:	00261413          	sll	s0,a2,0x2
 200:	00259793          	sll	a5,a1,0x2
 204:	00f48533          	add	a0,s1,a5
 208:	00052803          	lw	a6,0(a0)
 20c:	00478793          	add	a5,a5,4
 210:	00f488b3          	add	a7,s1,a5
 214:	00258e1b          	addw	t3,a1,2
 218:	00098613          	mv	a2,s3
 21c:	00040793          	mv	a5,s0
 220:	0008a303          	lw	t1,0(a7)
 224:	00f486b3          	add	a3,s1,a5
 228:	0006a703          	lw	a4,0(a3)
 22c:	05034463          	blt	t1,a6,274 <quicksort+0x9c>
 230:	02e85263          	bge	a6,a4,254 <quicksort+0x7c>
 234:	fff60793          	add	a5,a2,-1
 238:	00279793          	sll	a5,a5,0x2
 23c:	00f487b3          	add	a5,s1,a5
 240:	0007a703          	lw	a4,0(a5)
 244:	00078693          	mv	a3,a5
 248:	fff6061b          	addw	a2,a2,-1
 24c:	ffc78793          	add	a5,a5,-4
 250:	fee848e3          	blt	a6,a4,240 <quicksort+0x68>
 254:	00060913          	mv	s2,a2
 258:	fffe079b          	addw	a5,t3,-1
 25c:	fff6061b          	addw	a2,a2,-1
 260:	0327d063          	bge	a5,s2,280 <quicksort+0xa8>
 264:	00e8a023          	sw	a4,0(a7)
 268:	0066a023          	sw	t1,0(a3)
 26c:	00052803          	lw	a6,0(a0)
 270:	00261793          	sll	a5,a2,0x2
 274:	00488893          	add	a7,a7,4
 278:	001e0e1b          	addw	t3,t3,1
 27c:	fa5ff06f          	j	220 <quicksort+0x48>
 280:	0106a023          	sw	a6,0(a3)
 284:	00e52023          	sw	a4,0(a0)
 288:	00048513          	mv	a0,s1
 28c:	f4dff0ef          	jal	1d8 <quicksort>
 290:	0019059b          	addw	a1,s2,1
 294:	f735c6e3          	blt	a1,s3,200 <quicksort+0x28>
 298:	02813083          	ld	ra,40(sp)
 29c:	02013403          	ld	s0,32(sp)
 2a0:	01813483          	ld	s1,24(sp)
 2a4:	01013903          	ld	s2,16(sp)
 2a8:	00813983          	ld	s3,8(sp)
 2ac:	03010113          	add	sp,sp,48
 2b0:	00008067          	ret
 2b4:	00008067          	ret

00000000000002b8 <int32ToHex>:
 2b8:	03000793          	li	a5,48
 2bc:	00f58023          	sb	a5,0(a1)
 2c0:	07800793          	li	a5,120
 2c4:	00f580a3          	sb	a5,1(a1)
 2c8:	00158813          	add	a6,a1,1
 2cc:	00958793          	add	a5,a1,9
 2d0:	00900613          	li	a2,9
 2d4:	00f57713          	and	a4,a0,15
 2d8:	03770693          	add	a3,a4,55
 2dc:	00e66463          	bltu	a2,a4,2e4 <int32ToHex+0x2c>
 2e0:	03070693          	add	a3,a4,48
 2e4:	00d78023          	sb	a3,0(a5)
 2e8:	fff78793          	add	a5,a5,-1
 2ec:	40455513          	sra	a0,a0,0x4
 2f0:	fef812e3          	bne	a6,a5,2d4 <int32ToHex+0x1c>
 2f4:	00058523          	sb	zero,10(a1)
 2f8:	00008067          	ret

00000000000002fc <int64ToHex>:
 2fc:	03000793          	li	a5,48
 300:	00f58023          	sb	a5,0(a1)
 304:	07800793          	li	a5,120
 308:	00f580a3          	sb	a5,1(a1)
 30c:	00158813          	add	a6,a1,1
 310:	01158793          	add	a5,a1,17
 314:	00900613          	li	a2,9
 318:	00f57713          	and	a4,a0,15
 31c:	03770693          	add	a3,a4,55
 320:	00e66463          	bltu	a2,a4,328 <int64ToHex+0x2c>
 324:	03070693          	add	a3,a4,48
 328:	00d78023          	sb	a3,0(a5)
 32c:	fff78793          	add	a5,a5,-1
 330:	40455513          	sra	a0,a0,0x4
 334:	fef812e3          	bne	a6,a5,318 <int64ToHex+0x1c>
 338:	00058923          	sb	zero,18(a1)
 33c:	00008067          	ret

0000000000000340 <printstr>:
 340:	00054783          	lbu	a5,0(a0)
 344:	00078c63          	beqz	a5,35c <printstr+0x1c>
 348:	10000737          	lui	a4,0x10000
 34c:	00f70023          	sb	a5,0(a4) # 10000000 <tohost>
 350:	00154783          	lbu	a5,1(a0)
 354:	00150513          	add	a0,a0,1
 358:	fe079ae3          	bnez	a5,34c <printstr+0xc>
 35c:	00008067          	ret

0000000000000360 <exit>:
 360:	fe010113          	add	sp,sp,-32
 364:	00113c23          	sd	ra,24(sp)
 368:	00004717          	auipc	a4,0x4
 36c:	d7070713          	add	a4,a4,-656 # 40d8 <array+0xd8>
 370:	04500793          	li	a5,69
 374:	100006b7          	lui	a3,0x10000
 378:	00f68023          	sb	a5,0(a3) # 10000000 <tohost>
 37c:	00174783          	lbu	a5,1(a4)
 380:	00170713          	add	a4,a4,1
 384:	fe079ae3          	bnez	a5,378 <exit+0x18>
 388:	00010593          	mv	a1,sp
 38c:	f2dff0ef          	jal	2b8 <int32ToHex>
 390:	00014703          	lbu	a4,0(sp)
 394:	00070e63          	beqz	a4,3b0 <exit+0x50>
 398:	00010793          	mv	a5,sp
 39c:	100006b7          	lui	a3,0x10000
 3a0:	00e68023          	sb	a4,0(a3) # 10000000 <tohost>
 3a4:	0017c703          	lbu	a4,1(a5)
 3a8:	00178793          	add	a5,a5,1
 3ac:	fe071ae3          	bnez	a4,3a0 <exit+0x40>
 3b0:	100007b7          	lui	a5,0x10000
 3b4:	00078023          	sb	zero,0(a5) # 10000000 <tohost>
 3b8:	0000006f          	j	3b8 <exit+0x58>

00000000000003bc <handle_trap>:
 3bc:	ffff87b7          	lui	a5,0xffff8
 3c0:	fd010113          	add	sp,sp,-48
 3c4:	8307c793          	xor	a5,a5,-2000
 3c8:	00f11423          	sh	a5,8(sp)
 3cc:	02113423          	sd	ra,40(sp)
 3d0:	01910793          	add	a5,sp,25
 3d4:	00910813          	add	a6,sp,9
 3d8:	00900613          	li	a2,9
 3dc:	00f5f713          	and	a4,a1,15
 3e0:	03770693          	add	a3,a4,55
 3e4:	00e66463          	bltu	a2,a4,3ec <handle_trap+0x30>
 3e8:	03070693          	add	a3,a4,48
 3ec:	00d78023          	sb	a3,0(a5) # ffffffffffff8000 <_end+0xffffffffefff7fb8>
 3f0:	fff78793          	add	a5,a5,-1
 3f4:	4045d593          	sra	a1,a1,0x4
 3f8:	ff0792e3          	bne	a5,a6,3dc <handle_trap+0x20>
 3fc:	00010d23          	sb	zero,26(sp)
 400:	00b00793          	li	a5,11
 404:	02a7e063          	bltu	a5,a0,424 <handle_trap+0x68>
 408:	00004717          	auipc	a4,0x4
 40c:	c7870713          	add	a4,a4,-904 # 4080 <array+0x80>
 410:	00251513          	sll	a0,a0,0x2
 414:	00e50533          	add	a0,a0,a4
 418:	00052783          	lw	a5,0(a0)
 41c:	00e787b3          	add	a5,a5,a4
 420:	00078067          	jr	a5
 424:	00004717          	auipc	a4,0x4
 428:	ddc70713          	add	a4,a4,-548 # 4200 <array+0x200>
 42c:	05500793          	li	a5,85
 430:	100006b7          	lui	a3,0x10000
 434:	00f68023          	sb	a5,0(a3) # 10000000 <tohost>
 438:	00174783          	lbu	a5,1(a4)
 43c:	00170713          	add	a4,a4,1
 440:	fe079ae3          	bnez	a5,434 <handle_trap+0x78>
 444:	00814783          	lbu	a5,8(sp)
 448:	00810713          	add	a4,sp,8
 44c:	100006b7          	lui	a3,0x10000
 450:	00078a63          	beqz	a5,464 <handle_trap+0xa8>
 454:	00f68023          	sb	a5,0(a3) # 10000000 <tohost>
 458:	00174783          	lbu	a5,1(a4)
 45c:	00170713          	add	a4,a4,1
 460:	fe079ae3          	bnez	a5,454 <handle_trap+0x98>
 464:	00004717          	auipc	a4,0x4
 468:	dbc70713          	add	a4,a4,-580 # 4220 <array+0x220>
 46c:	00a00793          	li	a5,10
 470:	100006b7          	lui	a3,0x10000
 474:	00f68023          	sb	a5,0(a3) # 10000000 <tohost>
 478:	00174783          	lbu	a5,1(a4)
 47c:	00170713          	add	a4,a4,1
 480:	fe079ae3          	bnez	a5,474 <handle_trap+0xb8>
 484:	fff00513          	li	a0,-1
 488:	ed9ff0ef          	jal	360 <exit>
 48c:	00004717          	auipc	a4,0x4
 490:	c5c70713          	add	a4,a4,-932 # 40e8 <array+0xe8>
 494:	04900793          	li	a5,73
 498:	100006b7          	lui	a3,0x10000
 49c:	00f68023          	sb	a5,0(a3) # 10000000 <tohost>
 4a0:	00174783          	lbu	a5,1(a4)
 4a4:	00170713          	add	a4,a4,1
 4a8:	fe079ae3          	bnez	a5,49c <handle_trap+0xe0>
 4ac:	00814783          	lbu	a5,8(sp)
 4b0:	00810713          	add	a4,sp,8
 4b4:	100006b7          	lui	a3,0x10000
 4b8:	fc0786e3          	beqz	a5,484 <handle_trap+0xc8>
 4bc:	00f68023          	sb	a5,0(a3) # 10000000 <tohost>
 4c0:	00174783          	lbu	a5,1(a4)
 4c4:	00170713          	add	a4,a4,1
 4c8:	fe079ae3          	bnez	a5,4bc <handle_trap+0x100>
 4cc:	fb9ff06f          	j	484 <handle_trap+0xc8>
 4d0:	00004717          	auipc	a4,0x4
 4d4:	c4070713          	add	a4,a4,-960 # 4110 <array+0x110>
 4d8:	04900793          	li	a5,73
 4dc:	100006b7          	lui	a3,0x10000
 4e0:	00f68023          	sb	a5,0(a3) # 10000000 <tohost>
 4e4:	00174783          	lbu	a5,1(a4)
 4e8:	00170713          	add	a4,a4,1
 4ec:	fe079ae3          	bnez	a5,4e0 <handle_trap+0x124>
 4f0:	00814783          	lbu	a5,8(sp)
 4f4:	f80788e3          	beqz	a5,484 <handle_trap+0xc8>
 4f8:	00810713          	add	a4,sp,8
 4fc:	100006b7          	lui	a3,0x10000
 500:	00f68023          	sb	a5,0(a3) # 10000000 <tohost>
 504:	00174783          	lbu	a5,1(a4)
 508:	00170713          	add	a4,a4,1
 50c:	fe079ae3          	bnez	a5,500 <handle_trap+0x144>
 510:	f75ff06f          	j	484 <handle_trap+0xc8>
 514:	00004717          	auipc	a4,0x4
 518:	c2470713          	add	a4,a4,-988 # 4138 <array+0x138>
 51c:	04900793          	li	a5,73
 520:	100006b7          	lui	a3,0x10000
 524:	00f68023          	sb	a5,0(a3) # 10000000 <tohost>
 528:	00174783          	lbu	a5,1(a4)
 52c:	00170713          	add	a4,a4,1
 530:	fe079ae3          	bnez	a5,524 <handle_trap+0x168>
 534:	00814783          	lbu	a5,8(sp)
 538:	f40786e3          	beqz	a5,484 <handle_trap+0xc8>
 53c:	00810713          	add	a4,sp,8
 540:	100006b7          	lui	a3,0x10000
 544:	00f68023          	sb	a5,0(a3) # 10000000 <tohost>
 548:	00174783          	lbu	a5,1(a4)
 54c:	00170713          	add	a4,a4,1
 550:	fe079ae3          	bnez	a5,544 <handle_trap+0x188>
 554:	f31ff06f          	j	484 <handle_trap+0xc8>
 558:	00004717          	auipc	a4,0x4
 55c:	c0070713          	add	a4,a4,-1024 # 4158 <array+0x158>
 560:	04c00793          	li	a5,76
 564:	100006b7          	lui	a3,0x10000
 568:	00f68023          	sb	a5,0(a3) # 10000000 <tohost>
 56c:	00174783          	lbu	a5,1(a4)
 570:	00170713          	add	a4,a4,1
 574:	fe079ae3          	bnez	a5,568 <handle_trap+0x1ac>
 578:	00814783          	lbu	a5,8(sp)
 57c:	f00784e3          	beqz	a5,484 <handle_trap+0xc8>
 580:	00810713          	add	a4,sp,8
 584:	100006b7          	lui	a3,0x10000
 588:	00f68023          	sb	a5,0(a3) # 10000000 <tohost>
 58c:	00174783          	lbu	a5,1(a4)
 590:	00170713          	add	a4,a4,1
 594:	fe079ae3          	bnez	a5,588 <handle_trap+0x1cc>
 598:	eedff06f          	j	484 <handle_trap+0xc8>
 59c:	00004717          	auipc	a4,0x4
 5a0:	bdc70713          	add	a4,a4,-1060 # 4178 <array+0x178>
 5a4:	04c00793          	li	a5,76
 5a8:	100006b7          	lui	a3,0x10000
 5ac:	00f68023          	sb	a5,0(a3) # 10000000 <tohost>
 5b0:	00174783          	lbu	a5,1(a4)
 5b4:	00170713          	add	a4,a4,1
 5b8:	fe079ae3          	bnez	a5,5ac <handle_trap+0x1f0>
 5bc:	00814783          	lbu	a5,8(sp)
 5c0:	ec0782e3          	beqz	a5,484 <handle_trap+0xc8>
 5c4:	00810713          	add	a4,sp,8
 5c8:	100006b7          	lui	a3,0x10000
 5cc:	00f68023          	sb	a5,0(a3) # 10000000 <tohost>
 5d0:	00174783          	lbu	a5,1(a4)
 5d4:	00170713          	add	a4,a4,1
 5d8:	fe079ae3          	bnez	a5,5cc <handle_trap+0x210>
 5dc:	ea9ff06f          	j	484 <handle_trap+0xc8>
 5e0:	00004717          	auipc	a4,0x4
 5e4:	bb870713          	add	a4,a4,-1096 # 4198 <array+0x198>
 5e8:	05300793          	li	a5,83
 5ec:	100006b7          	lui	a3,0x10000
 5f0:	00f68023          	sb	a5,0(a3) # 10000000 <tohost>
 5f4:	00174783          	lbu	a5,1(a4)
 5f8:	00170713          	add	a4,a4,1
 5fc:	fe079ae3          	bnez	a5,5f0 <handle_trap+0x234>
 600:	00814783          	lbu	a5,8(sp)
 604:	e80780e3          	beqz	a5,484 <handle_trap+0xc8>
 608:	00810713          	add	a4,sp,8
 60c:	100006b7          	lui	a3,0x10000
 610:	00f68023          	sb	a5,0(a3) # 10000000 <tohost>
 614:	00174783          	lbu	a5,1(a4)
 618:	00170713          	add	a4,a4,1
 61c:	fe079ae3          	bnez	a5,610 <handle_trap+0x254>
 620:	e65ff06f          	j	484 <handle_trap+0xc8>
 624:	00004717          	auipc	a4,0x4
 628:	b9c70713          	add	a4,a4,-1124 # 41c0 <array+0x1c0>
 62c:	05300793          	li	a5,83
 630:	100006b7          	lui	a3,0x10000
 634:	00f68023          	sb	a5,0(a3) # 10000000 <tohost>
 638:	00174783          	lbu	a5,1(a4)
 63c:	00170713          	add	a4,a4,1
 640:	fe079ae3          	bnez	a5,634 <handle_trap+0x278>
 644:	00814783          	lbu	a5,8(sp)
 648:	e2078ee3          	beqz	a5,484 <handle_trap+0xc8>
 64c:	00810713          	add	a4,sp,8
 650:	100006b7          	lui	a3,0x10000
 654:	00f68023          	sb	a5,0(a3) # 10000000 <tohost>
 658:	00174783          	lbu	a5,1(a4)
 65c:	00170713          	add	a4,a4,1
 660:	fe079ae3          	bnez	a5,654 <handle_trap+0x298>
 664:	e21ff06f          	j	484 <handle_trap+0xc8>
 668:	00004717          	auipc	a4,0x4
 66c:	b7870713          	add	a4,a4,-1160 # 41e0 <array+0x1e0>
 670:	04500793          	li	a5,69
 674:	100006b7          	lui	a3,0x10000
 678:	00f68023          	sb	a5,0(a3) # 10000000 <tohost>
 67c:	00174783          	lbu	a5,1(a4)
 680:	00170713          	add	a4,a4,1
 684:	fe079ae3          	bnez	a5,678 <handle_trap+0x2bc>
 688:	00814783          	lbu	a5,8(sp)
 68c:	de078ce3          	beqz	a5,484 <handle_trap+0xc8>
 690:	00810713          	add	a4,sp,8
 694:	100006b7          	lui	a3,0x10000
 698:	00f68023          	sb	a5,0(a3) # 10000000 <tohost>
 69c:	00174783          	lbu	a5,1(a4)
 6a0:	00170713          	add	a4,a4,1
 6a4:	fe079ae3          	bnez	a5,698 <handle_trap+0x2dc>
 6a8:	dddff06f          	j	484 <handle_trap+0xc8>

00000000000006ac <thread_entry>:
 6ac:	00051063          	bnez	a0,6ac <thread_entry>
 6b0:	00008067          	ret

00000000000006b4 <_init>:
 6b4:	ff010113          	add	sp,sp,-16
 6b8:	00113423          	sd	ra,8(sp)
 6bc:	b0201073          	csrw	minstret,zero
 6c0:	b0001073          	csrw	mcycle,zero
 6c4:	00000593          	li	a1,0
 6c8:	00000513          	li	a0,0
 6cc:	1e4000ef          	jal	8b0 <main>
 6d0:	c91ff0ef          	jal	360 <exit>

00000000000006d4 <memcpy>:
 6d4:	00b567b3          	or	a5,a0,a1
 6d8:	00c7e7b3          	or	a5,a5,a2
 6dc:	0077f793          	and	a5,a5,7
 6e0:	00c50833          	add	a6,a0,a2
 6e4:	02078463          	beqz	a5,70c <memcpy+0x38>
 6e8:	00c58633          	add	a2,a1,a2
 6ec:	00050793          	mv	a5,a0
 6f0:	0b057663          	bgeu	a0,a6,79c <memcpy+0xc8>
 6f4:	0005c703          	lbu	a4,0(a1)
 6f8:	00158593          	add	a1,a1,1
 6fc:	00178793          	add	a5,a5,1
 700:	fee78fa3          	sb	a4,-1(a5)
 704:	fec598e3          	bne	a1,a2,6f4 <memcpy+0x20>
 708:	00008067          	ret
 70c:	04050693          	add	a3,a0,64
 710:	0906f863          	bgeu	a3,a6,7a0 <memcpy+0xcc>
 714:	00058713          	mv	a4,a1
 718:	00068793          	mv	a5,a3
 71c:	00073383          	ld	t2,0(a4)
 720:	00873283          	ld	t0,8(a4)
 724:	01073f83          	ld	t6,16(a4)
 728:	01873f03          	ld	t5,24(a4)
 72c:	02073e83          	ld	t4,32(a4)
 730:	02873e03          	ld	t3,40(a4)
 734:	03073303          	ld	t1,48(a4)
 738:	03873883          	ld	a7,56(a4)
 73c:	04078793          	add	a5,a5,64
 740:	f877b023          	sd	t2,-128(a5)
 744:	f857b423          	sd	t0,-120(a5)
 748:	f9f7b823          	sd	t6,-112(a5)
 74c:	f9e7bc23          	sd	t5,-104(a5)
 750:	fbd7b023          	sd	t4,-96(a5)
 754:	fbc7b423          	sd	t3,-88(a5)
 758:	fa67b823          	sd	t1,-80(a5)
 75c:	fb17bc23          	sd	a7,-72(a5)
 760:	04070713          	add	a4,a4,64
 764:	fb07ece3          	bltu	a5,a6,71c <memcpy+0x48>
 768:	fbf60613          	add	a2,a2,-65
 76c:	fc067793          	and	a5,a2,-64
 770:	04078793          	add	a5,a5,64
 774:	fc067613          	and	a2,a2,-64
 778:	00f585b3          	add	a1,a1,a5
 77c:	00c687b3          	add	a5,a3,a2
 780:	f907f4e3          	bgeu	a5,a6,708 <memcpy+0x34>
 784:	0005b703          	ld	a4,0(a1)
 788:	00878793          	add	a5,a5,8
 78c:	00858593          	add	a1,a1,8
 790:	fee7bc23          	sd	a4,-8(a5)
 794:	ff07e8e3          	bltu	a5,a6,784 <memcpy+0xb0>
 798:	00008067          	ret
 79c:	00008067          	ret
 7a0:	00050793          	mv	a5,a0
 7a4:	fddff06f          	j	780 <memcpy+0xac>

00000000000007a8 <memset>:
 7a8:	00c567b3          	or	a5,a0,a2
 7ac:	0077f793          	and	a5,a5,7
 7b0:	00c50633          	add	a2,a0,a2
 7b4:	0ff5f593          	zext.b	a1,a1
 7b8:	00078e63          	beqz	a5,7d4 <memset+0x2c>
 7bc:	00050793          	mv	a5,a0
 7c0:	04c57263          	bgeu	a0,a2,804 <memset+0x5c>
 7c4:	00178793          	add	a5,a5,1
 7c8:	feb78fa3          	sb	a1,-1(a5)
 7cc:	fef61ce3          	bne	a2,a5,7c4 <memset+0x1c>
 7d0:	00008067          	ret
 7d4:	00859713          	sll	a4,a1,0x8
 7d8:	00b70733          	add	a4,a4,a1
 7dc:	01071793          	sll	a5,a4,0x10
 7e0:	00f70733          	add	a4,a4,a5
 7e4:	02071793          	sll	a5,a4,0x20
 7e8:	00f70733          	add	a4,a4,a5
 7ec:	fec572e3          	bgeu	a0,a2,7d0 <memset+0x28>
 7f0:	00050793          	mv	a5,a0
 7f4:	00878793          	add	a5,a5,8
 7f8:	fee7bc23          	sd	a4,-8(a5)
 7fc:	fec7ece3          	bltu	a5,a2,7f4 <memset+0x4c>
 800:	00008067          	ret
 804:	00008067          	ret

0000000000000808 <strlen>:
 808:	00054783          	lbu	a5,0(a0)
 80c:	00078e63          	beqz	a5,828 <strlen+0x20>
 810:	00050793          	mv	a5,a0
 814:	0017c703          	lbu	a4,1(a5)
 818:	00178793          	add	a5,a5,1
 81c:	fe071ce3          	bnez	a4,814 <strlen+0xc>
 820:	40a78533          	sub	a0,a5,a0
 824:	00008067          	ret
 828:	00000513          	li	a0,0
 82c:	00008067          	ret

0000000000000830 <strnlen>:
 830:	00b506b3          	add	a3,a0,a1
 834:	00050793          	mv	a5,a0
 838:	00059863          	bnez	a1,848 <strnlen+0x18>
 83c:	0240006f          	j	860 <strnlen+0x30>
 840:	00178793          	add	a5,a5,1
 844:	00f68a63          	beq	a3,a5,858 <strnlen+0x28>
 848:	0007c703          	lbu	a4,0(a5)
 84c:	fe071ae3          	bnez	a4,840 <strnlen+0x10>
 850:	40a78533          	sub	a0,a5,a0
 854:	00008067          	ret
 858:	40a68533          	sub	a0,a3,a0
 85c:	00008067          	ret
 860:	00000513          	li	a0,0
 864:	00008067          	ret

0000000000000868 <strcmp>:
 868:	00054783          	lbu	a5,0(a0)
 86c:	00158593          	add	a1,a1,1
 870:	00150513          	add	a0,a0,1
 874:	fff5c703          	lbu	a4,-1(a1)
 878:	00078a63          	beqz	a5,88c <strcmp+0x24>
 87c:	fee786e3          	beq	a5,a4,868 <strcmp>
 880:	0007851b          	sext.w	a0,a5
 884:	40e5053b          	subw	a0,a0,a4
 888:	00008067          	ret
 88c:	00000513          	li	a0,0
 890:	ff5ff06f          	j	884 <strcmp+0x1c>

0000000000000894 <strcpy>:
 894:	00050793          	mv	a5,a0
 898:	0005c703          	lbu	a4,0(a1)
 89c:	00178793          	add	a5,a5,1
 8a0:	00158593          	add	a1,a1,1
 8a4:	fee78fa3          	sb	a4,-1(a5)
 8a8:	fe0718e3          	bnez	a4,898 <strcpy+0x4>
 8ac:	00008067          	ret

Disassembly of section .text.startup:

00000000000008b0 <main>:
 8b0:	fa010113          	add	sp,sp,-96
 8b4:	04113c23          	sd	ra,88(sp)
 8b8:	04813823          	sd	s0,80(sp)
 8bc:	04913423          	sd	s1,72(sp)
 8c0:	05213023          	sd	s2,64(sp)
 8c4:	03313c23          	sd	s3,56(sp)
 8c8:	03413823          	sd	s4,48(sp)
 8cc:	03513423          	sd	s5,40(sp)
 8d0:	b0201073          	csrw	minstret,zero
 8d4:	b0001073          	csrw	mcycle,zero
 8d8:	00003417          	auipc	s0,0x3
 8dc:	72840413          	add	s0,s0,1832 # 4000 <array>
 8e0:	01f00613          	li	a2,31
 8e4:	00000593          	li	a1,0
 8e8:	00040513          	mv	a0,s0
 8ec:	8edff0ef          	jal	1d8 <quicksort>
 8f0:	c02024f3          	rdinstret	s1
 8f4:	c0002973          	rdcycle	s2
 8f8:	00003517          	auipc	a0,0x3
 8fc:	7b850513          	add	a0,a0,1976 # 40b0 <array+0xb0>
 900:	a41ff0ef          	jal	340 <printstr>
 904:	00810593          	add	a1,sp,8
 908:	00090513          	mv	a0,s2
 90c:	9f1ff0ef          	jal	2fc <int64ToHex>
 910:	00810513          	add	a0,sp,8
 914:	a2dff0ef          	jal	340 <printstr>
 918:	00003517          	auipc	a0,0x3
 91c:	7a050513          	add	a0,a0,1952 # 40b8 <array+0xb8>
 920:	a21ff0ef          	jal	340 <printstr>
 924:	00810593          	add	a1,sp,8
 928:	00048513          	mv	a0,s1
 92c:	9d1ff0ef          	jal	2fc <int64ToHex>
 930:	00810513          	add	a0,sp,8
 934:	a0dff0ef          	jal	340 <printstr>
 938:	00003517          	auipc	a0,0x3
 93c:	79050513          	add	a0,a0,1936 # 40c8 <array+0xc8>
 940:	a01ff0ef          	jal	340 <printstr>
 944:	00810593          	add	a1,sp,8
 948:	00000513          	li	a0,0
 94c:	96dff0ef          	jal	2b8 <int32ToHex>
 950:	00810513          	add	a0,sp,8
 954:	9edff0ef          	jal	340 <printstr>
 958:	00004517          	auipc	a0,0x4
 95c:	88050513          	add	a0,a0,-1920 # 41d8 <array+0x1d8>
 960:	9e1ff0ef          	jal	340 <printstr>
 964:	00042503          	lw	a0,0(s0)
 968:	00810593          	add	a1,sp,8
 96c:	00003417          	auipc	s0,0x3
 970:	69840413          	add	s0,s0,1688 # 4004 <array+0x4>
 974:	945ff0ef          	jal	2b8 <int32ToHex>
 978:	00810513          	add	a0,sp,8
 97c:	00100a93          	li	s5,1
 980:	9c1ff0ef          	jal	340 <printstr>
 984:	00100493          	li	s1,1
 988:	00003a17          	auipc	s4,0x3
 98c:	740a0a13          	add	s4,s4,1856 # 40c8 <array+0xc8>
 990:	00004997          	auipc	s3,0x4
 994:	84898993          	add	s3,s3,-1976 # 41d8 <array+0x1d8>
 998:	02000913          	li	s2,32
 99c:	000a0513          	mv	a0,s4
 9a0:	9a1ff0ef          	jal	340 <printstr>
 9a4:	00810593          	add	a1,sp,8
 9a8:	00048513          	mv	a0,s1
 9ac:	90dff0ef          	jal	2b8 <int32ToHex>
 9b0:	00810513          	add	a0,sp,8
 9b4:	98dff0ef          	jal	340 <printstr>
 9b8:	00098513          	mv	a0,s3
 9bc:	985ff0ef          	jal	340 <printstr>
 9c0:	00042503          	lw	a0,0(s0)
 9c4:	00810593          	add	a1,sp,8
 9c8:	0014849b          	addw	s1,s1,1
 9cc:	8edff0ef          	jal	2b8 <int32ToHex>
 9d0:	00810513          	add	a0,sp,8
 9d4:	96dff0ef          	jal	340 <printstr>
 9d8:	ffc42703          	lw	a4,-4(s0)
 9dc:	00042783          	lw	a5,0(s0)
 9e0:	00440413          	add	s0,s0,4
 9e4:	00e7d463          	bge	a5,a4,9ec <main+0x13c>
 9e8:	00000a93          	li	s5,0
 9ec:	fb2498e3          	bne	s1,s2,99c <main+0xec>
 9f0:	00003517          	auipc	a0,0x3
 9f4:	6e050513          	add	a0,a0,1760 # 40d0 <array+0xd0>
 9f8:	949ff0ef          	jal	340 <printstr>
 9fc:	05813083          	ld	ra,88(sp)
 a00:	05013403          	ld	s0,80(sp)
 a04:	04813483          	ld	s1,72(sp)
 a08:	04013903          	ld	s2,64(sp)
 a0c:	03813983          	ld	s3,56(sp)
 a10:	03013a03          	ld	s4,48(sp)
 a14:	001ac513          	xor	a0,s5,1
 a18:	02813a83          	ld	s5,40(sp)
 a1c:	06010113          	add	sp,sp,96
 a20:	00008067          	ret
 a24:	fff00513          	li	a0,-1
 a28:	00008067          	ret

Disassembly of section .tohost:

0000000010000000 <tohost>:
	...

0000000010000040 <fromhost>:
	...
